---
triple:          'arm64-apple-darwin'
binary-path:     '/Users/yqjiang/Desktop/Kozunotes/Kozuprojects/makruk_cpp_project/makurk'
relocations:
  - { offsetInCU: 0x70FA, offset: 0x70FA, size: 0x8, addend: 0x0, symName: __ZNSt3__124__put_character_sequenceB7v160006IcNS_11char_traitsIcEEEERNS_13basic_ostreamIT_T0_EES7_PKS4_m, symObjAddr: 0x7B38, symBinAddr: 0x10000A0DC, symSize: 0x1F4 }
  - { offsetInCU: 0x8C3D, offset: 0x8C3D, size: 0x8, addend: 0x0, symName: __ZNSt3__122__make_exception_guardB7v160006INS_6vectorINS_10shared_ptrI5PieceEENS_9allocatorIS4_EEE16__destroy_vectorEEENS_28__exception_guard_exceptionsIT_EESA_, symObjAddr: 0xB28, symBinAddr: 0x1000030CC, symSize: 0x40 }
  - { offsetInCU: 0x8C72, offset: 0x8C72, size: 0x8, addend: 0x0, symName: __ZNSt3__119__debug_db_insert_cB7v160006INS_6vectorINS_10shared_ptrI5PieceEENS_9allocatorIS4_EEEEEEvPT_, symObjAddr: 0xB9C, symBinAddr: 0x100003140, symSize: 0x10 }
  - { offsetInCU: 0x8CA3, offset: 0x8CA3, size: 0x8, addend: 0x0, symName: __ZNSt3__119__allocate_at_leastB7v160006INS_9allocatorINS_10shared_ptrI5PieceEEEEEENS_19__allocation_resultINS_16allocator_traitsIT_E7pointerEEERS8_m, symObjAddr: 0xF48, symBinAddr: 0x1000034EC, symSize: 0x40 }
  - { offsetInCU: 0x8CE6, offset: 0x8CE6, size: 0x8, addend: 0x0, symName: __ZNSt3__13minB7v160006ImEERKT_S3_S3_, symObjAddr: 0x1084, symBinAddr: 0x100003628, symSize: 0x2C }
  - { offsetInCU: 0x8F2A, offset: 0x8F2A, size: 0x8, addend: 0x0, symName: __ZNSt3__13minB7v160006ImNS_6__lessImmEEEERKT_S5_S5_T0_, symObjAddr: 0x1110, symBinAddr: 0x1000036B4, symSize: 0x54 }
  - { offsetInCU: 0x8FBF, offset: 0x8FBF, size: 0x8, addend: 0x0, symName: __ZNSt3__120__throw_length_errorB7v160006EPKc, symObjAddr: 0x11EC, symBinAddr: 0x100003790, symSize: 0x64 }
  - { offsetInCU: 0x8FE7, offset: 0x8FE7, size: 0x8, addend: 0x0, symName: __ZNSt3__130__libcpp_is_constant_evaluatedB7v160006Ev, symObjAddr: 0x1388, symBinAddr: 0x10000392C, symSize: 0xC }
  - { offsetInCU: 0x9004, offset: 0x9004, size: 0x8, addend: 0x0, symName: __ZNSt3__117__libcpp_allocateB7v160006Emm, symObjAddr: 0x1394, symBinAddr: 0x100003938, symSize: 0x28 }
  - { offsetInCU: 0x9041, offset: 0x9041, size: 0x8, addend: 0x0, symName: __ZNSt3__121__libcpp_operator_newB7v160006IJmEEEPvDpT_, symObjAddr: 0x13BC, symBinAddr: 0x100003960, symSize: 0x24 }
  - { offsetInCU: 0x907A, offset: 0x907A, size: 0x8, addend: 0x0, symName: __ZNSt3__112__to_addressB7v160006INS_10shared_ptrI5PieceEEEEPT_S5_, symObjAddr: 0x14D8, symBinAddr: 0x100003A7C, symSize: 0x14 }
  - { offsetInCU: 0x90AF, offset: 0x90AF, size: 0x8, addend: 0x0, symName: __ZNSt3__134__libcpp_atomic_refcount_incrementB7v160006IlEET_RS1_, symObjAddr: 0x174C, symBinAddr: 0x100003CF0, symSize: 0x30 }
  - { offsetInCU: 0x90E4, offset: 0x90E4, size: 0x8, addend: 0x0, symName: __ZNSt3__118__debug_db_erase_cB7v160006INS_6vectorINS_10shared_ptrI5PieceEENS_9allocatorIS4_EEEEEEvPT_, symObjAddr: 0x1938, symBinAddr: 0x100003EDC, symSize: 0x10 }
  - { offsetInCU: 0x9115, offset: 0x9115, size: 0x8, addend: 0x0, symName: __ZNSt3__119__libcpp_deallocateB7v160006EPvmm, symObjAddr: 0x1B30, symBinAddr: 0x1000040D4, symSize: 0x30 }
  - { offsetInCU: 0x915D, offset: 0x915D, size: 0x8, addend: 0x0, symName: __ZNSt3__127__do_deallocate_handle_sizeB7v160006IJEEEvPvmDpT_, symObjAddr: 0x1B60, symBinAddr: 0x100004104, symSize: 0x28 }
  - { offsetInCU: 0x919B, offset: 0x919B, size: 0x8, addend: 0x0, symName: __ZNSt3__124__libcpp_operator_deleteB7v160006IJPvEEEvDpT_, symObjAddr: 0x1B88, symBinAddr: 0x10000412C, symSize: 0x24 }
  - { offsetInCU: 0x91D0, offset: 0x91D0, size: 0x8, addend: 0x0, symName: __ZNSt3__122__make_exception_guardB7v160006INS_6vectorINS1_INS_10shared_ptrI5PieceEENS_9allocatorIS4_EEEENS5_IS7_EEE16__destroy_vectorEEENS_28__exception_guard_exceptionsIT_EESC_, symObjAddr: 0x1CD8, symBinAddr: 0x10000427C, symSize: 0x40 }
  - { offsetInCU: 0x9205, offset: 0x9205, size: 0x8, addend: 0x0, symName: __ZNSt3__119__debug_db_insert_cB7v160006INS_6vectorINS1_INS_10shared_ptrI5PieceEENS_9allocatorIS4_EEEENS5_IS7_EEEEEEvPT_, symObjAddr: 0x1D4C, symBinAddr: 0x1000042F0, symSize: 0x10 }
  - { offsetInCU: 0x9236, offset: 0x9236, size: 0x8, addend: 0x0, symName: __ZNSt3__119__allocate_at_leastB7v160006INS_9allocatorINS_6vectorINS_10shared_ptrI5PieceEENS1_IS5_EEEEEEEENS_19__allocation_resultINS_16allocator_traitsIT_E7pointerEEERSB_m, symObjAddr: 0x2100, symBinAddr: 0x1000046A4, symSize: 0x40 }
  - { offsetInCU: 0x9279, offset: 0x9279, size: 0x8, addend: 0x0, symName: __ZNSt3__112__to_addressB7v160006INS_6vectorINS_10shared_ptrI5PieceEENS_9allocatorIS4_EEEEEEPT_S9_, symObjAddr: 0x2478, symBinAddr: 0x100004A1C, symSize: 0x14 }
  - { offsetInCU: 0x92AE, offset: 0x92AE, size: 0x8, addend: 0x0, symName: __ZNSt3__130__uninitialized_allocator_copyB7v160006INS_9allocatorINS_10shared_ptrI5PieceEEEEPS4_S6_S6_EET2_RT_T0_T1_S7_, symObjAddr: 0x288C, symBinAddr: 0x100004E30, symSize: 0xFC }
  - { offsetInCU: 0x934C, offset: 0x934C, size: 0x8, addend: 0x0, symName: __ZNSt3__122__make_exception_guardB7v160006INS_29_AllocatorDestroyRangeReverseINS_9allocatorINS_10shared_ptrI5PieceEEEEPS5_EEEENS_28__exception_guard_exceptionsIT_EESA_, symObjAddr: 0x2988, symBinAddr: 0x100004F2C, symSize: 0x4C }
  - { offsetInCU: 0x9382, offset: 0x9382, size: 0x8, addend: 0x0, symName: __ZNSt3__119__allocator_destroyB7v160006INS_9allocatorINS_10shared_ptrI5PieceEEEENS_16reverse_iteratorIPS4_EES8_EEvRT_T0_T1_, symObjAddr: 0x2C10, symBinAddr: 0x1000051B4, symSize: 0x70 }
  - { offsetInCU: 0x93E5, offset: 0x93E5, size: 0x8, addend: 0x0, symName: __ZNSt3__1neB7v160006IPNS_10shared_ptrI5PieceEES4_EEbRKNS_16reverse_iteratorIT_EERKNS5_IT0_EE, symObjAddr: 0x2CB4, symBinAddr: 0x100005258, symSize: 0x48 }
  - { offsetInCU: 0x9431, offset: 0x9431, size: 0x8, addend: 0x0, symName: __ZNSt3__112__to_addressB7v160006INS_16reverse_iteratorIPNS_10shared_ptrI5PieceEEEEvEENS_5decayIDTclsr19__to_address_helperIT_EE6__callclsr3stdE7declvalIRKS8_EEEEE4typeESA_, symObjAddr: 0x2CFC, symBinAddr: 0x1000052A0, symSize: 0x24 }
  - { offsetInCU: 0x9490, offset: 0x9490, size: 0x8, addend: 0x0, symName: __ZNSt3__118__debug_db_erase_cB7v160006INS_6vectorINS1_INS_10shared_ptrI5PieceEENS_9allocatorIS4_EEEENS5_IS7_EEEEEEvPT_, symObjAddr: 0x2FF0, symBinAddr: 0x100005594, symSize: 0x10 }
  - { offsetInCU: 0x94C1, offset: 0x94C1, size: 0x8, addend: 0x0, symName: __ZNSt3__134__libcpp_atomic_refcount_decrementB7v160006IlEET_RS1_, symObjAddr: 0x3334, symBinAddr: 0x1000058D8, symSize: 0x30 }
  - { offsetInCU: 0x94F6, offset: 0x94F6, size: 0x8, addend: 0x0, symName: __ZNSt3__111make_sharedB7v160006I4PawnJ11AffiliationEvEENS_10shared_ptrIT_EEDpOT0_, symObjAddr: 0x3364, symBinAddr: 0x100005908, symSize: 0x40 }
  - { offsetInCU: 0x9723, offset: 0x9723, size: 0x8, addend: 0x0, symName: __ZNSt3__111make_sharedB7v160006I4RookJ11AffiliationEvEENS_10shared_ptrIT_EEDpOT0_, symObjAddr: 0x3470, symBinAddr: 0x100005A14, symSize: 0x40 }
  - { offsetInCU: 0x9950, offset: 0x9950, size: 0x8, addend: 0x0, symName: __ZNSt3__111make_sharedB7v160006I6KnightJ11AffiliationEvEENS_10shared_ptrIT_EEDpOT0_, symObjAddr: 0x3598, symBinAddr: 0x100005B3C, symSize: 0x40 }
  - { offsetInCU: 0x9B7D, offset: 0x9B7D, size: 0x8, addend: 0x0, symName: __ZNSt3__111make_sharedB7v160006I6BishopJ11AffiliationEvEENS_10shared_ptrIT_EEDpOT0_, symObjAddr: 0x3654, symBinAddr: 0x100005BF8, symSize: 0x40 }
  - { offsetInCU: 0x9DAA, offset: 0x9DAA, size: 0x8, addend: 0x0, symName: __ZNSt3__111make_sharedB7v160006I4KingJ11AffiliationEvEENS_10shared_ptrIT_EEDpOT0_, symObjAddr: 0x3710, symBinAddr: 0x100005CB4, symSize: 0x40 }
  - { offsetInCU: 0x9FD7, offset: 0x9FD7, size: 0x8, addend: 0x0, symName: __ZNSt3__115allocate_sharedB7v160006I4PawnNS_9allocatorIS1_EEJ11AffiliationEvEENS_10shared_ptrIT_EERKT0_DpOT1_, symObjAddr: 0x37CC, symBinAddr: 0x100005D70, symSize: 0x98 }
  - { offsetInCU: 0xA318, offset: 0xA318, size: 0x8, addend: 0x0, symName: __ZNSt3__14swapB7v160006IP5PieceEEvRT_S4_, symObjAddr: 0x44E0, symBinAddr: 0x100006A84, symSize: 0x3C }
  - { offsetInCU: 0xA369, offset: 0xA369, size: 0x8, addend: 0x0, symName: __ZNSt3__14swapB7v160006IPNS_19__shared_weak_countEEEvRT_S4_, symObjAddr: 0x451C, symBinAddr: 0x100006AC0, symSize: 0x3C }
  - { offsetInCU: 0xA3BA, offset: 0xA3BA, size: 0x8, addend: 0x0, symName: __ZNSt3__115allocate_sharedB7v160006I4RookNS_9allocatorIS1_EEJ11AffiliationEvEENS_10shared_ptrIT_EERKT0_DpOT1_, symObjAddr: 0x45AC, symBinAddr: 0x100006B50, symSize: 0x98 }
  - { offsetInCU: 0xA6FB, offset: 0xA6FB, size: 0x8, addend: 0x0, symName: __ZNSt3__115allocate_sharedB7v160006I6KnightNS_9allocatorIS1_EEJ11AffiliationEvEENS_10shared_ptrIT_EERKT0_DpOT1_, symObjAddr: 0x51C8, symBinAddr: 0x10000776C, symSize: 0x98 }
  - { offsetInCU: 0xAA3C, offset: 0xAA3C, size: 0x8, addend: 0x0, symName: __ZNSt3__115allocate_sharedB7v160006I6BishopNS_9allocatorIS1_EEJ11AffiliationEvEENS_10shared_ptrIT_EERKT0_DpOT1_, symObjAddr: 0x5DE4, symBinAddr: 0x100008388, symSize: 0x98 }
  - { offsetInCU: 0xAD7D, offset: 0xAD7D, size: 0x8, addend: 0x0, symName: __ZNSt3__115allocate_sharedB7v160006I4KingNS_9allocatorIS1_EEJ11AffiliationEvEENS_10shared_ptrIT_EERKT0_DpOT1_, symObjAddr: 0x6A00, symBinAddr: 0x100008FA4, symSize: 0x98 }
  - { offsetInCU: 0xB0BE, offset: 0xB0BE, size: 0x8, addend: 0x0, symName: __ZNSt3__1neB7v160006IPNS_6vectorINS_10shared_ptrI5PieceEENS_9allocatorIS4_EEEEEEbRKNS_11__wrap_iterIT_EESD_, symObjAddr: 0x76B8, symBinAddr: 0x100009C5C, symSize: 0x34 }
  - { offsetInCU: 0xB101, offset: 0xB101, size: 0x8, addend: 0x0, symName: __ZNSt3__1neB7v160006IPKNS_10shared_ptrI5PieceEEEEbRKNS_11__wrap_iterIT_EESA_, symObjAddr: 0x7764, symBinAddr: 0x100009D08, symSize: 0x34 }
  - { offsetInCU: 0xB144, offset: 0xB144, size: 0x8, addend: 0x0, symName: __ZNSt3__1lsB7v160006INS_11char_traitsIcEEEERNS_13basic_ostreamIcT_EES6_c, symObjAddr: 0x77E0, symBinAddr: 0x100009D84, symSize: 0x34 }
  - { offsetInCU: 0xB18A, offset: 0xB18A, size: 0x8, addend: 0x0, symName: __ZNSt3__1lsB7v160006INS_11char_traitsIcEEEERNS_13basic_ostreamIcT_EES6_PKc, symObjAddr: 0x782C, symBinAddr: 0x100009DD0, symSize: 0x48 }
  - { offsetInCU: 0xB1D0, offset: 0xB1D0, size: 0x8, addend: 0x0, symName: __ZNSt3__14endlB7v160006IcNS_11char_traitsIcEEEERNS_13basic_ostreamIT_T0_EES7_, symObjAddr: 0x78C0, symBinAddr: 0x100009E64, symSize: 0x58 }
  - { offsetInCU: 0xB210, offset: 0xB210, size: 0x8, addend: 0x0, symName: __ZNSt3__1eqB7v160006IPNS_6vectorINS_10shared_ptrI5PieceEENS_9allocatorIS4_EEEEEEbRKNS_11__wrap_iterIT_EESD_, symObjAddr: 0x79CC, symBinAddr: 0x100009F70, symSize: 0x48 }
  - { offsetInCU: 0xB253, offset: 0xB253, size: 0x8, addend: 0x0, symName: __ZNSt3__1eqB7v160006IPKNS_10shared_ptrI5PieceEEEEbRKNS_11__wrap_iterIT_EESA_, symObjAddr: 0x7AC0, symBinAddr: 0x10000A064, symSize: 0x48 }
  - { offsetInCU: 0xB296, offset: 0xB296, size: 0x8, addend: 0x0, symName: __ZNSt3__116__pad_and_outputB7v160006IcNS_11char_traitsIcEEEENS_19ostreambuf_iteratorIT_T0_EES6_PKS4_S8_S8_RNS_8ios_baseES4_, symObjAddr: 0x7D48, symBinAddr: 0x10000A2EC, symSize: 0x248 }
  - { offsetInCU: 0xB365, offset: 0xB365, size: 0x8, addend: 0x0, symName: __ZNSt3__119__debug_db_insert_cB7v160006INS_12basic_stringIcNS_11char_traitsIcEENS_9allocatorIcEEEEEEvPT_, symObjAddr: 0x8204, symBinAddr: 0x10000A7A8, symSize: 0x10 }
  - { offsetInCU: 0xB396, offset: 0xB396, size: 0x8, addend: 0x0, symName: __ZNSt3__112__to_addressB7v160006IKcEEPT_S3_, symObjAddr: 0x82D0, symBinAddr: 0x10000A874, symSize: 0x14 }
  - { offsetInCU: 0xB3FE, offset: 0xB3FE, size: 0x8, addend: 0x0, symName: __ZNSt3__19use_facetB7v160006INS_5ctypeIcEEEERKT_RKNS_6localeE, symObjAddr: 0x85A8, symBinAddr: 0x10000AB4C, symSize: 0x2C }
  - { offsetInCU: 0xB8CD, offset: 0xB8CD, size: 0x8, addend: 0x0, symName: __ZNSt3__118__constexpr_strlenB7v160006EPKc, symObjAddr: 0x8688, symBinAddr: 0x10000AC2C, symSize: 0x24 }
  - { offsetInCU: 0xBC85, offset: 0xBC85, size: 0x8, addend: 0x0, symName: __ZSt28__throw_bad_array_new_lengthB7v160006v, symObjAddr: 0x1354, symBinAddr: 0x1000038F8, symSize: 0x34 }
  - { offsetInCU: 0xE9FC, offset: 0xE9FC, size: 0x8, addend: 0x0, symName: _main, symObjAddr: 0x0, symBinAddr: 0x1000025A4, symSize: 0x6C }
  - { offsetInCU: 0xEAA9, offset: 0xEAA9, size: 0x8, addend: 0x0, symName: __ZN10ChessboardC1Ev, symObjAddr: 0x6C, symBinAddr: 0x100002610, symSize: 0x2C }
  - { offsetInCU: 0xEAD3, offset: 0xEAD3, size: 0x8, addend: 0x0, symName: __ZN10Chessboard10printBoardEv, symObjAddr: 0x98, symBinAddr: 0x10000263C, symSize: 0x134 }
  - { offsetInCU: 0xEB9F, offset: 0xEB9F, size: 0x8, addend: 0x0, symName: __ZN10ChessboardD1Ev, symObjAddr: 0x1CC, symBinAddr: 0x100002770, symSize: 0x2C }
  - { offsetInCU: 0xEBCB, offset: 0xEBCB, size: 0x8, addend: 0x0, symName: __ZN10ChessboardC2Ev, symObjAddr: 0x204, symBinAddr: 0x1000027A8, symSize: 0xE8 }
  - { offsetInCU: 0xEBF5, offset: 0xEBF5, size: 0x8, addend: 0x0, symName: __ZNSt3__110shared_ptrI5PieceEC1B7v160006EDn, symObjAddr: 0x2EC, symBinAddr: 0x100002890, symSize: 0x34 }
  - { offsetInCU: 0xEC2B, offset: 0xEC2B, size: 0x8, addend: 0x0, symName: __ZNSt3__16vectorINS_10shared_ptrI5PieceEENS_9allocatorIS3_EEEC1EmRKS3_, symObjAddr: 0x320, symBinAddr: 0x1000028C4, symSize: 0x3C }
  - { offsetInCU: 0xEC75, offset: 0xEC75, size: 0x8, addend: 0x0, symName: __ZNSt3__16vectorINS0_INS_10shared_ptrI5PieceEENS_9allocatorIS3_EEEENS4_IS6_EEEC1EmRKS6_, symObjAddr: 0x35C, symBinAddr: 0x100002900, symSize: 0x3C }
  - { offsetInCU: 0xECBF, offset: 0xECBF, size: 0x8, addend: 0x0, symName: __ZNSt3__16vectorINS_10shared_ptrI5PieceEENS_9allocatorIS3_EEED1B7v160006Ev, symObjAddr: 0x398, symBinAddr: 0x10000293C, symSize: 0x2C }
  - { offsetInCU: 0xECE9, offset: 0xECE9, size: 0x8, addend: 0x0, symName: __ZNSt3__110shared_ptrI5PieceED1B7v160006Ev, symObjAddr: 0x3C4, symBinAddr: 0x100002968, symSize: 0x2C }
  - { offsetInCU: 0xED13, offset: 0xED13, size: 0x8, addend: 0x0, symName: __ZN10Chessboard9initBoardEv, symObjAddr: 0x3F0, symBinAddr: 0x100002994, symSize: 0x5C0 }
  - { offsetInCU: 0xED4D, offset: 0xED4D, size: 0x8, addend: 0x0, symName: __ZNSt3__16vectorINS0_INS_10shared_ptrI5PieceEENS_9allocatorIS3_EEEENS4_IS6_EEED1B7v160006Ev, symObjAddr: 0x9B0, symBinAddr: 0x100002F54, symSize: 0x2C }
  - { offsetInCU: 0xED77, offset: 0xED77, size: 0x8, addend: 0x0, symName: __ZNSt3__110shared_ptrI5PieceEC2B7v160006EDn, symObjAddr: 0x9DC, symBinAddr: 0x100002F80, symSize: 0x20 }
  - { offsetInCU: 0xEDAD, offset: 0xEDAD, size: 0x8, addend: 0x0, symName: __ZNSt3__16vectorINS_10shared_ptrI5PieceEENS_9allocatorIS3_EEEC2EmRKS3_, symObjAddr: 0x9FC, symBinAddr: 0x100002FA0, symSize: 0xF0 }
  - { offsetInCU: 0xEE16, offset: 0xEE16, size: 0x8, addend: 0x0, symName: __ZNSt3__117__compressed_pairIPNS_10shared_ptrI5PieceEENS_9allocatorIS3_EEEC1B7v160006IDnNS_18__default_init_tagEEEOT_OT0_, symObjAddr: 0xAEC, symBinAddr: 0x100003090, symSize: 0x3C }
  - { offsetInCU: 0xEE6E, offset: 0xEE6E, size: 0x8, addend: 0x0, symName: __ZNSt3__16vectorINS_10shared_ptrI5PieceEENS_9allocatorIS3_EEE16__destroy_vectorC1ERS6_, symObjAddr: 0xB68, symBinAddr: 0x10000310C, symSize: 0x34 }
  - { offsetInCU: 0xEEA7, offset: 0xEEA7, size: 0x8, addend: 0x0, symName: __ZNSt3__16vectorINS_10shared_ptrI5PieceEENS_9allocatorIS3_EEE11__vallocateB7v160006Em, symObjAddr: 0xBAC, symBinAddr: 0x100003150, symSize: 0xAC }
  - { offsetInCU: 0xEEEB, offset: 0xEEEB, size: 0x8, addend: 0x0, symName: __ZNSt3__16vectorINS_10shared_ptrI5PieceEENS_9allocatorIS3_EEE18__construct_at_endEmRKS3_, symObjAddr: 0xC58, symBinAddr: 0x1000031FC, symSize: 0xD8 }
  - { offsetInCU: 0xEF6D, offset: 0xEF6D, size: 0x8, addend: 0x0, symName: __ZNSt3__128__exception_guard_exceptionsINS_6vectorINS_10shared_ptrI5PieceEENS_9allocatorIS4_EEE16__destroy_vectorEE10__completeB7v160006Ev, symObjAddr: 0xD30, symBinAddr: 0x1000032D4, symSize: 0x1C }
  - { offsetInCU: 0xEF93, offset: 0xEF93, size: 0x8, addend: 0x0, symName: __ZNSt3__128__exception_guard_exceptionsINS_6vectorINS_10shared_ptrI5PieceEENS_9allocatorIS4_EEE16__destroy_vectorEED1B7v160006Ev, symObjAddr: 0xD4C, symBinAddr: 0x1000032F0, symSize: 0x2C }
  - { offsetInCU: 0xEFBD, offset: 0xEFBD, size: 0x8, addend: 0x0, symName: __ZNSt3__117__compressed_pairIPNS_10shared_ptrI5PieceEENS_9allocatorIS3_EEEC2B7v160006IDnNS_18__default_init_tagEEEOT_OT0_, symObjAddr: 0xD78, symBinAddr: 0x10000331C, symSize: 0x40 }
  - { offsetInCU: 0xF015, offset: 0xF015, size: 0x8, addend: 0x0, symName: __ZNSt3__122__compressed_pair_elemIPNS_10shared_ptrI5PieceEELi0ELb0EEC2B7v160006IDnvEEOT_, symObjAddr: 0xDB8, symBinAddr: 0x10000335C, symSize: 0x1C }
  - { offsetInCU: 0xF057, offset: 0xF057, size: 0x8, addend: 0x0, symName: __ZNSt3__122__compressed_pair_elemINS_9allocatorINS_10shared_ptrI5PieceEEEELi1ELb1EEC2B7v160006ENS_18__default_init_tagE, symObjAddr: 0xDD4, symBinAddr: 0x100003378, symSize: 0x2C }
  - { offsetInCU: 0xF08C, offset: 0xF08C, size: 0x8, addend: 0x0, symName: __ZNSt3__19allocatorINS_10shared_ptrI5PieceEEEC2B7v160006Ev, symObjAddr: 0xE00, symBinAddr: 0x1000033A4, symSize: 0x2C }
  - { offsetInCU: 0xF0B6, offset: 0xF0B6, size: 0x8, addend: 0x0, symName: __ZNSt3__116__non_trivial_ifILb1ENS_9allocatorINS_10shared_ptrI5PieceEEEEEC2B7v160006Ev, symObjAddr: 0xE2C, symBinAddr: 0x1000033D0, symSize: 0x14 }
  - { offsetInCU: 0xF0E0, offset: 0xF0E0, size: 0x8, addend: 0x0, symName: __ZNSt3__128__exception_guard_exceptionsINS_6vectorINS_10shared_ptrI5PieceEENS_9allocatorIS4_EEE16__destroy_vectorEEC1B7v160006ES8_, symObjAddr: 0xE40, symBinAddr: 0x1000033E4, symSize: 0x34 }
  - { offsetInCU: 0xF118, offset: 0xF118, size: 0x8, addend: 0x0, symName: __ZNSt3__128__exception_guard_exceptionsINS_6vectorINS_10shared_ptrI5PieceEENS_9allocatorIS4_EEE16__destroy_vectorEEC2B7v160006ES8_, symObjAddr: 0xE74, symBinAddr: 0x100003418, symSize: 0x24 }
  - { offsetInCU: 0xF150, offset: 0xF150, size: 0x8, addend: 0x0, symName: __ZNSt3__16vectorINS_10shared_ptrI5PieceEENS_9allocatorIS3_EEE16__destroy_vectorC2ERS6_, symObjAddr: 0xE98, symBinAddr: 0x10000343C, symSize: 0x20 }
  - { offsetInCU: 0xF189, offset: 0xF189, size: 0x8, addend: 0x0, symName: __ZNKSt3__16vectorINS_10shared_ptrI5PieceEENS_9allocatorIS3_EEE8max_sizeEv, symObjAddr: 0xEB8, symBinAddr: 0x10000345C, symSize: 0x74 }
  - { offsetInCU: 0xF1B1, offset: 0xF1B1, size: 0x8, addend: 0x0, symName: __ZNKSt3__16vectorINS_10shared_ptrI5PieceEENS_9allocatorIS3_EEE20__throw_length_errorB7v160006Ev, symObjAddr: 0xF2C, symBinAddr: 0x1000034D0, symSize: 0x1C }
  - { offsetInCU: 0xF1D7, offset: 0xF1D7, size: 0x8, addend: 0x0, symName: __ZNSt3__16vectorINS_10shared_ptrI5PieceEENS_9allocatorIS3_EEE7__allocB7v160006Ev, symObjAddr: 0xF88, symBinAddr: 0x10000352C, symSize: 0x28 }
  - { offsetInCU: 0xF1FD, offset: 0xF1FD, size: 0x8, addend: 0x0, symName: __ZNSt3__16vectorINS_10shared_ptrI5PieceEENS_9allocatorIS3_EEE9__end_capB7v160006Ev, symObjAddr: 0xFB0, symBinAddr: 0x100003554, symSize: 0x28 }
  - { offsetInCU: 0xF223, offset: 0xF223, size: 0x8, addend: 0x0, symName: __ZNKSt3__16vectorINS_10shared_ptrI5PieceEENS_9allocatorIS3_EEE14__annotate_newB7v160006Em, symObjAddr: 0xFD8, symBinAddr: 0x10000357C, symSize: 0xAC }
  - { offsetInCU: 0xF262, offset: 0xF262, size: 0x8, addend: 0x0, symName: __ZNSt3__116allocator_traitsINS_9allocatorINS_10shared_ptrI5PieceEEEEE8max_sizeB7v160006IS5_vEEmRKS5_, symObjAddr: 0x10B0, symBinAddr: 0x100003654, symSize: 0x24 }
  - { offsetInCU: 0xF290, offset: 0xF290, size: 0x8, addend: 0x0, symName: __ZNKSt3__16vectorINS_10shared_ptrI5PieceEENS_9allocatorIS3_EEE7__allocB7v160006Ev, symObjAddr: 0x10D4, symBinAddr: 0x100003678, symSize: 0x28 }
  - { offsetInCU: 0xF2B6, offset: 0xF2B6, size: 0x8, addend: 0x0, symName: __ZNSt3__114numeric_limitsIlE3maxB7v160006Ev, symObjAddr: 0x10FC, symBinAddr: 0x1000036A0, symSize: 0x14 }
  - { offsetInCU: 0xF2DE, offset: 0xF2DE, size: 0x8, addend: 0x0, symName: __ZNKSt3__16__lessImmEclB7v160006ERKmS3_, symObjAddr: 0x1164, symBinAddr: 0x100003708, symSize: 0x34 }
  - { offsetInCU: 0xF320, offset: 0xF320, size: 0x8, addend: 0x0, symName: __ZNKSt3__19allocatorINS_10shared_ptrI5PieceEEE8max_sizeB7v160006Ev, symObjAddr: 0x1198, symBinAddr: 0x10000373C, symSize: 0x14 }
  - { offsetInCU: 0xF346, offset: 0xF346, size: 0x8, addend: 0x0, symName: __ZNKSt3__117__compressed_pairIPNS_10shared_ptrI5PieceEENS_9allocatorIS3_EEE6secondB7v160006Ev, symObjAddr: 0x11AC, symBinAddr: 0x100003750, symSize: 0x24 }
  - { offsetInCU: 0xF36C, offset: 0xF36C, size: 0x8, addend: 0x0, symName: __ZNKSt3__122__compressed_pair_elemINS_9allocatorINS_10shared_ptrI5PieceEEEELi1ELb1EE5__getB7v160006Ev, symObjAddr: 0x11D0, symBinAddr: 0x100003774, symSize: 0x14 }
  - { offsetInCU: 0xF392, offset: 0xF392, size: 0x8, addend: 0x0, symName: __ZNSt3__123__libcpp_numeric_limitsIlLb1EE3maxB7v160006Ev, symObjAddr: 0x11E4, symBinAddr: 0x100003788, symSize: 0x8 }
  - { offsetInCU: 0xF3A6, offset: 0xF3A6, size: 0x8, addend: 0x0, symName: __ZNSt12length_errorC1B7v160006EPKc, symObjAddr: 0x1250, symBinAddr: 0x1000037F4, symSize: 0x34 }
  - { offsetInCU: 0xF3DE, offset: 0xF3DE, size: 0x8, addend: 0x0, symName: __ZNSt12length_errorC2B7v160006EPKc, symObjAddr: 0x1284, symBinAddr: 0x100003828, symSize: 0x4C }
  - { offsetInCU: 0xF416, offset: 0xF416, size: 0x8, addend: 0x0, symName: __ZNSt3__19allocatorINS_10shared_ptrI5PieceEEE8allocateB7v160006Em, symObjAddr: 0x12D0, symBinAddr: 0x100003874, symSize: 0x84 }
  - { offsetInCU: 0xF44A, offset: 0xF44A, size: 0x8, addend: 0x0, symName: __ZNSt3__117__compressed_pairIPNS_10shared_ptrI5PieceEENS_9allocatorIS3_EEE6secondB7v160006Ev, symObjAddr: 0x13E0, symBinAddr: 0x100003984, symSize: 0x24 }
  - { offsetInCU: 0xF470, offset: 0xF470, size: 0x8, addend: 0x0, symName: __ZNSt3__122__compressed_pair_elemINS_9allocatorINS_10shared_ptrI5PieceEEEELi1ELb1EE5__getB7v160006Ev, symObjAddr: 0x1404, symBinAddr: 0x1000039A8, symSize: 0x14 }
  - { offsetInCU: 0xF496, offset: 0xF496, size: 0x8, addend: 0x0, symName: __ZNSt3__117__compressed_pairIPNS_10shared_ptrI5PieceEENS_9allocatorIS3_EEE5firstB7v160006Ev, symObjAddr: 0x1418, symBinAddr: 0x1000039BC, symSize: 0x24 }
  - { offsetInCU: 0xF4BC, offset: 0xF4BC, size: 0x8, addend: 0x0, symName: __ZNSt3__122__compressed_pair_elemIPNS_10shared_ptrI5PieceEELi0ELb0EE5__getB7v160006Ev, symObjAddr: 0x143C, symBinAddr: 0x1000039E0, symSize: 0x14 }
  - { offsetInCU: 0xF4E2, offset: 0xF4E2, size: 0x8, addend: 0x0, symName: __ZNKSt3__16vectorINS_10shared_ptrI5PieceEENS_9allocatorIS3_EEE31__annotate_contiguous_containerB7v160006EPKvS8_S8_S8_, symObjAddr: 0x1450, symBinAddr: 0x1000039F4, symSize: 0x20 }
  - { offsetInCU: 0xF538, offset: 0xF538, size: 0x8, addend: 0x0, symName: __ZNKSt3__16vectorINS_10shared_ptrI5PieceEENS_9allocatorIS3_EEE4dataB7v160006Ev, symObjAddr: 0x1470, symBinAddr: 0x100003A14, symSize: 0x28 }
  - { offsetInCU: 0xF55E, offset: 0xF55E, size: 0x8, addend: 0x0, symName: __ZNKSt3__16vectorINS_10shared_ptrI5PieceEENS_9allocatorIS3_EEE8capacityB7v160006Ev, symObjAddr: 0x1498, symBinAddr: 0x100003A3C, symSize: 0x40 }
  - { offsetInCU: 0xF584, offset: 0xF584, size: 0x8, addend: 0x0, symName: __ZNKSt3__16vectorINS_10shared_ptrI5PieceEENS_9allocatorIS3_EEE9__end_capB7v160006Ev, symObjAddr: 0x14EC, symBinAddr: 0x100003A90, symSize: 0x28 }
  - { offsetInCU: 0xF5AA, offset: 0xF5AA, size: 0x8, addend: 0x0, symName: __ZNKSt3__117__compressed_pairIPNS_10shared_ptrI5PieceEENS_9allocatorIS3_EEE5firstB7v160006Ev, symObjAddr: 0x1514, symBinAddr: 0x100003AB8, symSize: 0x24 }
  - { offsetInCU: 0xF5D0, offset: 0xF5D0, size: 0x8, addend: 0x0, symName: __ZNKSt3__122__compressed_pair_elemIPNS_10shared_ptrI5PieceEELi0ELb0EE5__getB7v160006Ev, symObjAddr: 0x1538, symBinAddr: 0x100003ADC, symSize: 0x14 }
  - { offsetInCU: 0xF60F, offset: 0xF60F, size: 0x8, addend: 0x0, symName: __ZNSt3__16vectorINS_10shared_ptrI5PieceEENS_9allocatorIS3_EEE21_ConstructTransactionC1B7v160006ERS6_m, symObjAddr: 0x154C, symBinAddr: 0x100003AF0, symSize: 0x3C }
  - { offsetInCU: 0xF657, offset: 0xF657, size: 0x8, addend: 0x0, symName: __ZNSt3__116allocator_traitsINS_9allocatorINS_10shared_ptrI5PieceEEEEE9constructB7v160006IS4_JRKS4_EvEEvRS5_PT_DpOT0_, symObjAddr: 0x1588, symBinAddr: 0x100003B2C, symSize: 0x34 }
  - { offsetInCU: 0xF6AE, offset: 0xF6AE, size: 0x8, addend: 0x0, symName: __ZNSt3__16vectorINS_10shared_ptrI5PieceEENS_9allocatorIS3_EEE21_ConstructTransactionD1B7v160006Ev, symObjAddr: 0x15BC, symBinAddr: 0x100003B60, symSize: 0x2C }
  - { offsetInCU: 0xF6D8, offset: 0xF6D8, size: 0x8, addend: 0x0, symName: __ZNSt3__16vectorINS_10shared_ptrI5PieceEENS_9allocatorIS3_EEE21_ConstructTransactionC2B7v160006ERS6_m, symObjAddr: 0x15E8, symBinAddr: 0x100003B8C, symSize: 0x44 }
  - { offsetInCU: 0xF720, offset: 0xF720, size: 0x8, addend: 0x0, symName: __ZNSt3__19allocatorINS_10shared_ptrI5PieceEEE9constructB7v160006IS3_JRKS3_EEEvPT_DpOT0_, symObjAddr: 0x162C, symBinAddr: 0x100003BD0, symSize: 0x30 }
  - { offsetInCU: 0xF776, offset: 0xF776, size: 0x8, addend: 0x0, symName: __ZNSt3__110shared_ptrI5PieceEC1B7v160006ERKS2_, symObjAddr: 0x165C, symBinAddr: 0x100003C00, symSize: 0x34 }
  - { offsetInCU: 0xF7AF, offset: 0xF7AF, size: 0x8, addend: 0x0, symName: __ZNSt3__110shared_ptrI5PieceEC2B7v160006ERKS2_, symObjAddr: 0x1690, symBinAddr: 0x100003C34, symSize: 0x70 }
  - { offsetInCU: 0xF7E8, offset: 0xF7E8, size: 0x8, addend: 0x0, symName: __ZNSt3__119__shared_weak_count12__add_sharedB7v160006Ev, symObjAddr: 0x1700, symBinAddr: 0x100003CA4, symSize: 0x24 }
  - { offsetInCU: 0xF80E, offset: 0xF80E, size: 0x8, addend: 0x0, symName: __ZNSt3__114__shared_count12__add_sharedB7v160006Ev, symObjAddr: 0x1724, symBinAddr: 0x100003CC8, symSize: 0x28 }
  - { offsetInCU: 0xF834, offset: 0xF834, size: 0x8, addend: 0x0, symName: __ZNSt3__16vectorINS_10shared_ptrI5PieceEENS_9allocatorIS3_EEE21_ConstructTransactionD2B7v160006Ev, symObjAddr: 0x177C, symBinAddr: 0x100003D20, symSize: 0x20 }
  - { offsetInCU: 0xF85E, offset: 0xF85E, size: 0x8, addend: 0x0, symName: __ZNSt3__128__exception_guard_exceptionsINS_6vectorINS_10shared_ptrI5PieceEENS_9allocatorIS4_EEE16__destroy_vectorEED2B7v160006Ev, symObjAddr: 0x179C, symBinAddr: 0x100003D40, symSize: 0x48 }
  - { offsetInCU: 0xF888, offset: 0xF888, size: 0x8, addend: 0x0, symName: __ZNSt3__16vectorINS_10shared_ptrI5PieceEENS_9allocatorIS3_EEE16__destroy_vectorclB7v160006Ev, symObjAddr: 0x17E4, symBinAddr: 0x100003D88, symSize: 0x9C }
  - { offsetInCU: 0xF8AE, offset: 0xF8AE, size: 0x8, addend: 0x0, symName: __ZNKSt3__16vectorINS_10shared_ptrI5PieceEENS_9allocatorIS3_EEE17__annotate_deleteB7v160006Ev, symObjAddr: 0x1880, symBinAddr: 0x100003E24, symSize: 0xB8 }
  - { offsetInCU: 0xF8D4, offset: 0xF8D4, size: 0x8, addend: 0x0, symName: __ZNSt3__16vectorINS_10shared_ptrI5PieceEENS_9allocatorIS3_EEE7__clearB7v160006Ev, symObjAddr: 0x1948, symBinAddr: 0x100003EEC, symSize: 0x28 }
  - { offsetInCU: 0xF8FA, offset: 0xF8FA, size: 0x8, addend: 0x0, symName: __ZNSt3__116allocator_traitsINS_9allocatorINS_10shared_ptrI5PieceEEEEE10deallocateB7v160006ERS5_PS4_m, symObjAddr: 0x1970, symBinAddr: 0x100003F14, symSize: 0x34 }
  - { offsetInCU: 0xF93C, offset: 0xF93C, size: 0x8, addend: 0x0, symName: __ZNKSt3__16vectorINS_10shared_ptrI5PieceEENS_9allocatorIS3_EEE4sizeB7v160006Ev, symObjAddr: 0x19A4, symBinAddr: 0x100003F48, symSize: 0x28 }
  - { offsetInCU: 0xF962, offset: 0xF962, size: 0x8, addend: 0x0, symName: __ZNSt3__16vectorINS_10shared_ptrI5PieceEENS_9allocatorIS3_EEE22__base_destruct_at_endB7v160006EPS3_, symObjAddr: 0x19CC, symBinAddr: 0x100003F70, symSize: 0xA0 }
  - { offsetInCU: 0xF9A6, offset: 0xF9A6, size: 0x8, addend: 0x0, symName: __ZNSt3__116allocator_traitsINS_9allocatorINS_10shared_ptrI5PieceEEEEE7destroyB7v160006IS4_vEEvRS5_PT_, symObjAddr: 0x1A6C, symBinAddr: 0x100004010, symSize: 0x2C }
  - { offsetInCU: 0xF9E3, offset: 0xF9E3, size: 0x8, addend: 0x0, symName: __ZNSt3__19allocatorINS_10shared_ptrI5PieceEEE7destroyB7v160006EPS3_, symObjAddr: 0x1A98, symBinAddr: 0x10000403C, symSize: 0x28 }
  - { offsetInCU: 0xFA17, offset: 0xFA17, size: 0x8, addend: 0x0, symName: __ZNSt3__19allocatorINS_10shared_ptrI5PieceEEE10deallocateB7v160006EPS3_m, symObjAddr: 0x1AC0, symBinAddr: 0x100004064, symSize: 0x70 }
  - { offsetInCU: 0xFA59, offset: 0xFA59, size: 0x8, addend: 0x0, symName: __ZNSt3__16vectorINS0_INS_10shared_ptrI5PieceEENS_9allocatorIS3_EEEENS4_IS6_EEEC2EmRKS6_, symObjAddr: 0x1BAC, symBinAddr: 0x100004150, symSize: 0xF0 }
  - { offsetInCU: 0xFAB8, offset: 0xFAB8, size: 0x8, addend: 0x0, symName: __ZNSt3__117__compressed_pairIPNS_6vectorINS_10shared_ptrI5PieceEENS_9allocatorIS4_EEEENS5_IS7_EEEC1B7v160006IDnNS_18__default_init_tagEEEOT_OT0_, symObjAddr: 0x1C9C, symBinAddr: 0x100004240, symSize: 0x3C }
  - { offsetInCU: 0xFB10, offset: 0xFB10, size: 0x8, addend: 0x0, symName: __ZNSt3__16vectorINS0_INS_10shared_ptrI5PieceEENS_9allocatorIS3_EEEENS4_IS6_EEE16__destroy_vectorC1ERS8_, symObjAddr: 0x1D18, symBinAddr: 0x1000042BC, symSize: 0x34 }
  - { offsetInCU: 0xFB49, offset: 0xFB49, size: 0x8, addend: 0x0, symName: __ZNSt3__16vectorINS0_INS_10shared_ptrI5PieceEENS_9allocatorIS3_EEEENS4_IS6_EEE11__vallocateB7v160006Em, symObjAddr: 0x1D5C, symBinAddr: 0x100004300, symSize: 0xB4 }
  - { offsetInCU: 0xFB8D, offset: 0xFB8D, size: 0x8, addend: 0x0, symName: __ZNSt3__16vectorINS0_INS_10shared_ptrI5PieceEENS_9allocatorIS3_EEEENS4_IS6_EEE18__construct_at_endEmRKS6_, symObjAddr: 0x1E10, symBinAddr: 0x1000043B4, symSize: 0xD8 }
  - { offsetInCU: 0xFC0F, offset: 0xFC0F, size: 0x8, addend: 0x0, symName: __ZNSt3__128__exception_guard_exceptionsINS_6vectorINS1_INS_10shared_ptrI5PieceEENS_9allocatorIS4_EEEENS5_IS7_EEE16__destroy_vectorEE10__completeB7v160006Ev, symObjAddr: 0x1EE8, symBinAddr: 0x10000448C, symSize: 0x1C }
  - { offsetInCU: 0xFC35, offset: 0xFC35, size: 0x8, addend: 0x0, symName: __ZNSt3__128__exception_guard_exceptionsINS_6vectorINS1_INS_10shared_ptrI5PieceEENS_9allocatorIS4_EEEENS5_IS7_EEE16__destroy_vectorEED1B7v160006Ev, symObjAddr: 0x1F04, symBinAddr: 0x1000044A8, symSize: 0x2C }
  - { offsetInCU: 0xFC5F, offset: 0xFC5F, size: 0x8, addend: 0x0, symName: __ZNSt3__117__compressed_pairIPNS_6vectorINS_10shared_ptrI5PieceEENS_9allocatorIS4_EEEENS5_IS7_EEEC2B7v160006IDnNS_18__default_init_tagEEEOT_OT0_, symObjAddr: 0x1F30, symBinAddr: 0x1000044D4, symSize: 0x40 }
  - { offsetInCU: 0xFCB7, offset: 0xFCB7, size: 0x8, addend: 0x0, symName: __ZNSt3__122__compressed_pair_elemIPNS_6vectorINS_10shared_ptrI5PieceEENS_9allocatorIS4_EEEELi0ELb0EEC2B7v160006IDnvEEOT_, symObjAddr: 0x1F70, symBinAddr: 0x100004514, symSize: 0x1C }
  - { offsetInCU: 0xFCF9, offset: 0xFCF9, size: 0x8, addend: 0x0, symName: __ZNSt3__122__compressed_pair_elemINS_9allocatorINS_6vectorINS_10shared_ptrI5PieceEENS1_IS5_EEEEEELi1ELb1EEC2B7v160006ENS_18__default_init_tagE, symObjAddr: 0x1F8C, symBinAddr: 0x100004530, symSize: 0x2C }
  - { offsetInCU: 0xFD2E, offset: 0xFD2E, size: 0x8, addend: 0x0, symName: __ZNSt3__19allocatorINS_6vectorINS_10shared_ptrI5PieceEENS0_IS4_EEEEEC2B7v160006Ev, symObjAddr: 0x1FB8, symBinAddr: 0x10000455C, symSize: 0x2C }
  - { offsetInCU: 0xFD58, offset: 0xFD58, size: 0x8, addend: 0x0, symName: __ZNSt3__116__non_trivial_ifILb1ENS_9allocatorINS_6vectorINS_10shared_ptrI5PieceEENS1_IS5_EEEEEEEC2B7v160006Ev, symObjAddr: 0x1FE4, symBinAddr: 0x100004588, symSize: 0x14 }
  - { offsetInCU: 0xFD82, offset: 0xFD82, size: 0x8, addend: 0x0, symName: __ZNSt3__128__exception_guard_exceptionsINS_6vectorINS1_INS_10shared_ptrI5PieceEENS_9allocatorIS4_EEEENS5_IS7_EEE16__destroy_vectorEEC1B7v160006ESA_, symObjAddr: 0x1FF8, symBinAddr: 0x10000459C, symSize: 0x34 }
  - { offsetInCU: 0xFDBA, offset: 0xFDBA, size: 0x8, addend: 0x0, symName: __ZNSt3__128__exception_guard_exceptionsINS_6vectorINS1_INS_10shared_ptrI5PieceEENS_9allocatorIS4_EEEENS5_IS7_EEE16__destroy_vectorEEC2B7v160006ESA_, symObjAddr: 0x202C, symBinAddr: 0x1000045D0, symSize: 0x24 }
  - { offsetInCU: 0xFDF2, offset: 0xFDF2, size: 0x8, addend: 0x0, symName: __ZNSt3__16vectorINS0_INS_10shared_ptrI5PieceEENS_9allocatorIS3_EEEENS4_IS6_EEE16__destroy_vectorC2ERS8_, symObjAddr: 0x2050, symBinAddr: 0x1000045F4, symSize: 0x20 }
  - { offsetInCU: 0xFE2B, offset: 0xFE2B, size: 0x8, addend: 0x0, symName: __ZNKSt3__16vectorINS0_INS_10shared_ptrI5PieceEENS_9allocatorIS3_EEEENS4_IS6_EEE8max_sizeEv, symObjAddr: 0x2070, symBinAddr: 0x100004614, symSize: 0x74 }
  - { offsetInCU: 0xFE53, offset: 0xFE53, size: 0x8, addend: 0x0, symName: __ZNKSt3__16vectorINS0_INS_10shared_ptrI5PieceEENS_9allocatorIS3_EEEENS4_IS6_EEE20__throw_length_errorB7v160006Ev, symObjAddr: 0x20E4, symBinAddr: 0x100004688, symSize: 0x1C }
  - { offsetInCU: 0xFE79, offset: 0xFE79, size: 0x8, addend: 0x0, symName: __ZNSt3__16vectorINS0_INS_10shared_ptrI5PieceEENS_9allocatorIS3_EEEENS4_IS6_EEE7__allocB7v160006Ev, symObjAddr: 0x2140, symBinAddr: 0x1000046E4, symSize: 0x28 }
  - { offsetInCU: 0xFE9F, offset: 0xFE9F, size: 0x8, addend: 0x0, symName: __ZNSt3__16vectorINS0_INS_10shared_ptrI5PieceEENS_9allocatorIS3_EEEENS4_IS6_EEE9__end_capB7v160006Ev, symObjAddr: 0x2168, symBinAddr: 0x10000470C, symSize: 0x28 }
  - { offsetInCU: 0xFEC5, offset: 0xFEC5, size: 0x8, addend: 0x0, symName: __ZNKSt3__16vectorINS0_INS_10shared_ptrI5PieceEENS_9allocatorIS3_EEEENS4_IS6_EEE14__annotate_newB7v160006Em, symObjAddr: 0x2190, symBinAddr: 0x100004734, symSize: 0xC8 }
  - { offsetInCU: 0xFF04, offset: 0xFF04, size: 0x8, addend: 0x0, symName: __ZNSt3__116allocator_traitsINS_9allocatorINS_6vectorINS_10shared_ptrI5PieceEENS1_IS5_EEEEEEE8max_sizeB7v160006IS8_vEEmRKS8_, symObjAddr: 0x2258, symBinAddr: 0x1000047FC, symSize: 0x24 }
  - { offsetInCU: 0xFF32, offset: 0xFF32, size: 0x8, addend: 0x0, symName: __ZNKSt3__16vectorINS0_INS_10shared_ptrI5PieceEENS_9allocatorIS3_EEEENS4_IS6_EEE7__allocB7v160006Ev, symObjAddr: 0x227C, symBinAddr: 0x100004820, symSize: 0x28 }
  - { offsetInCU: 0xFF58, offset: 0xFF58, size: 0x8, addend: 0x0, symName: __ZNKSt3__19allocatorINS_6vectorINS_10shared_ptrI5PieceEENS0_IS4_EEEEE8max_sizeB7v160006Ev, symObjAddr: 0x22A4, symBinAddr: 0x100004848, symSize: 0x18 }
  - { offsetInCU: 0xFF7E, offset: 0xFF7E, size: 0x8, addend: 0x0, symName: __ZNKSt3__117__compressed_pairIPNS_6vectorINS_10shared_ptrI5PieceEENS_9allocatorIS4_EEEENS5_IS7_EEE6secondB7v160006Ev, symObjAddr: 0x22BC, symBinAddr: 0x100004860, symSize: 0x24 }
  - { offsetInCU: 0xFFA4, offset: 0xFFA4, size: 0x8, addend: 0x0, symName: __ZNKSt3__122__compressed_pair_elemINS_9allocatorINS_6vectorINS_10shared_ptrI5PieceEENS1_IS5_EEEEEELi1ELb1EE5__getB7v160006Ev, symObjAddr: 0x22E0, symBinAddr: 0x100004884, symSize: 0x14 }
  - { offsetInCU: 0xFFCA, offset: 0xFFCA, size: 0x8, addend: 0x0, symName: __ZNSt3__19allocatorINS_6vectorINS_10shared_ptrI5PieceEENS0_IS4_EEEEE8allocateB7v160006Em, symObjAddr: 0x22F4, symBinAddr: 0x100004898, symSize: 0x8C }
  - { offsetInCU: 0xFFFE, offset: 0xFFFE, size: 0x8, addend: 0x0, symName: __ZNSt3__117__compressed_pairIPNS_6vectorINS_10shared_ptrI5PieceEENS_9allocatorIS4_EEEENS5_IS7_EEE6secondB7v160006Ev, symObjAddr: 0x2380, symBinAddr: 0x100004924, symSize: 0x24 }
  - { offsetInCU: 0x10024, offset: 0x10024, size: 0x8, addend: 0x0, symName: __ZNSt3__122__compressed_pair_elemINS_9allocatorINS_6vectorINS_10shared_ptrI5PieceEENS1_IS5_EEEEEELi1ELb1EE5__getB7v160006Ev, symObjAddr: 0x23A4, symBinAddr: 0x100004948, symSize: 0x14 }
  - { offsetInCU: 0x1004A, offset: 0x1004A, size: 0x8, addend: 0x0, symName: __ZNSt3__117__compressed_pairIPNS_6vectorINS_10shared_ptrI5PieceEENS_9allocatorIS4_EEEENS5_IS7_EEE5firstB7v160006Ev, symObjAddr: 0x23B8, symBinAddr: 0x10000495C, symSize: 0x24 }
  - { offsetInCU: 0x10070, offset: 0x10070, size: 0x8, addend: 0x0, symName: __ZNSt3__122__compressed_pair_elemIPNS_6vectorINS_10shared_ptrI5PieceEENS_9allocatorIS4_EEEELi0ELb0EE5__getB7v160006Ev, symObjAddr: 0x23DC, symBinAddr: 0x100004980, symSize: 0x14 }
  - { offsetInCU: 0x10096, offset: 0x10096, size: 0x8, addend: 0x0, symName: __ZNKSt3__16vectorINS0_INS_10shared_ptrI5PieceEENS_9allocatorIS3_EEEENS4_IS6_EEE31__annotate_contiguous_containerB7v160006EPKvSA_SA_SA_, symObjAddr: 0x23F0, symBinAddr: 0x100004994, symSize: 0x20 }
  - { offsetInCU: 0x100EC, offset: 0x100EC, size: 0x8, addend: 0x0, symName: __ZNKSt3__16vectorINS0_INS_10shared_ptrI5PieceEENS_9allocatorIS3_EEEENS4_IS6_EEE4dataB7v160006Ev, symObjAddr: 0x2410, symBinAddr: 0x1000049B4, symSize: 0x28 }
  - { offsetInCU: 0x10112, offset: 0x10112, size: 0x8, addend: 0x0, symName: __ZNKSt3__16vectorINS0_INS_10shared_ptrI5PieceEENS_9allocatorIS3_EEEENS4_IS6_EEE8capacityB7v160006Ev, symObjAddr: 0x2438, symBinAddr: 0x1000049DC, symSize: 0x40 }
  - { offsetInCU: 0x10138, offset: 0x10138, size: 0x8, addend: 0x0, symName: __ZNKSt3__16vectorINS0_INS_10shared_ptrI5PieceEENS_9allocatorIS3_EEEENS4_IS6_EEE9__end_capB7v160006Ev, symObjAddr: 0x248C, symBinAddr: 0x100004A30, symSize: 0x28 }
  - { offsetInCU: 0x1015E, offset: 0x1015E, size: 0x8, addend: 0x0, symName: __ZNKSt3__117__compressed_pairIPNS_6vectorINS_10shared_ptrI5PieceEENS_9allocatorIS4_EEEENS5_IS7_EEE5firstB7v160006Ev, symObjAddr: 0x24B4, symBinAddr: 0x100004A58, symSize: 0x24 }
  - { offsetInCU: 0x10184, offset: 0x10184, size: 0x8, addend: 0x0, symName: __ZNKSt3__122__compressed_pair_elemIPNS_6vectorINS_10shared_ptrI5PieceEENS_9allocatorIS4_EEEELi0ELb0EE5__getB7v160006Ev, symObjAddr: 0x24D8, symBinAddr: 0x100004A7C, symSize: 0x14 }
  - { offsetInCU: 0x101C3, offset: 0x101C3, size: 0x8, addend: 0x0, symName: __ZNSt3__16vectorINS0_INS_10shared_ptrI5PieceEENS_9allocatorIS3_EEEENS4_IS6_EEE21_ConstructTransactionC1B7v160006ERS8_m, symObjAddr: 0x24EC, symBinAddr: 0x100004A90, symSize: 0x3C }
  - { offsetInCU: 0x1020B, offset: 0x1020B, size: 0x8, addend: 0x0, symName: __ZNSt3__116allocator_traitsINS_9allocatorINS_6vectorINS_10shared_ptrI5PieceEENS1_IS5_EEEEEEE9constructB7v160006IS7_JRKS7_EvEEvRS8_PT_DpOT0_, symObjAddr: 0x2528, symBinAddr: 0x100004ACC, symSize: 0x34 }
  - { offsetInCU: 0x10262, offset: 0x10262, size: 0x8, addend: 0x0, symName: __ZNSt3__16vectorINS0_INS_10shared_ptrI5PieceEENS_9allocatorIS3_EEEENS4_IS6_EEE21_ConstructTransactionD1B7v160006Ev, symObjAddr: 0x255C, symBinAddr: 0x100004B00, symSize: 0x2C }
  - { offsetInCU: 0x1028C, offset: 0x1028C, size: 0x8, addend: 0x0, symName: __ZNSt3__16vectorINS0_INS_10shared_ptrI5PieceEENS_9allocatorIS3_EEEENS4_IS6_EEE21_ConstructTransactionC2B7v160006ERS8_m, symObjAddr: 0x2588, symBinAddr: 0x100004B2C, symSize: 0x4C }
  - { offsetInCU: 0x102D4, offset: 0x102D4, size: 0x8, addend: 0x0, symName: __ZNSt3__19allocatorINS_6vectorINS_10shared_ptrI5PieceEENS0_IS4_EEEEE9constructB7v160006IS6_JRKS6_EEEvPT_DpOT0_, symObjAddr: 0x25D4, symBinAddr: 0x100004B78, symSize: 0x30 }
  - { offsetInCU: 0x1032A, offset: 0x1032A, size: 0x8, addend: 0x0, symName: __ZNSt3__16vectorINS_10shared_ptrI5PieceEENS_9allocatorIS3_EEEC1ERKS6_, symObjAddr: 0x2604, symBinAddr: 0x100004BA8, symSize: 0x34 }
  - { offsetInCU: 0x10365, offset: 0x10365, size: 0x8, addend: 0x0, symName: __ZNSt3__16vectorINS_10shared_ptrI5PieceEENS_9allocatorIS3_EEEC2ERKS6_, symObjAddr: 0x2638, symBinAddr: 0x100004BDC, symSize: 0x118 }
  - { offsetInCU: 0x103C4, offset: 0x103C4, size: 0x8, addend: 0x0, symName: __ZNSt3__116allocator_traitsINS_9allocatorINS_10shared_ptrI5PieceEEEEE37select_on_container_copy_constructionB7v160006IS5_vvEES5_RKS5_, symObjAddr: 0x2750, symBinAddr: 0x100004CF4, symSize: 0x10 }
  - { offsetInCU: 0x103F8, offset: 0x103F8, size: 0x8, addend: 0x0, symName: __ZNSt3__117__compressed_pairIPNS_10shared_ptrI5PieceEENS_9allocatorIS3_EEEC1B7v160006IDnS6_EEOT_OT0_, symObjAddr: 0x2760, symBinAddr: 0x100004D04, symSize: 0x3C }
  - { offsetInCU: 0x10450, offset: 0x10450, size: 0x8, addend: 0x0, symName: __ZNSt3__16vectorINS_10shared_ptrI5PieceEENS_9allocatorIS3_EEE18__construct_at_endIPS3_Li0EEEvT_S9_m, symObjAddr: 0x279C, symBinAddr: 0x100004D40, symSize: 0x94 }
  - { offsetInCU: 0x104C3, offset: 0x104C3, size: 0x8, addend: 0x0, symName: __ZNSt3__117__compressed_pairIPNS_10shared_ptrI5PieceEENS_9allocatorIS3_EEEC2B7v160006IDnS6_EEOT_OT0_, symObjAddr: 0x2830, symBinAddr: 0x100004DD4, symSize: 0x44 }
  - { offsetInCU: 0x1051B, offset: 0x1051B, size: 0x8, addend: 0x0, symName: __ZNSt3__122__compressed_pair_elemINS_9allocatorINS_10shared_ptrI5PieceEEEELi1ELb1EEC2B7v160006IS5_vEEOT_, symObjAddr: 0x2874, symBinAddr: 0x100004E18, symSize: 0x18 }
  - { offsetInCU: 0x1055D, offset: 0x1055D, size: 0x8, addend: 0x0, symName: __ZNSt3__129_AllocatorDestroyRangeReverseINS_9allocatorINS_10shared_ptrI5PieceEEEEPS4_EC1B7v160006ERS5_RS6_S9_, symObjAddr: 0x29D4, symBinAddr: 0x100004F78, symSize: 0x44 }
  - { offsetInCU: 0x105B4, offset: 0x105B4, size: 0x8, addend: 0x0, symName: __ZNSt3__116allocator_traitsINS_9allocatorINS_10shared_ptrI5PieceEEEEE9constructB7v160006IS4_JRS4_EvEEvRS5_PT_DpOT0_, symObjAddr: 0x2A18, symBinAddr: 0x100004FBC, symSize: 0x34 }
  - { offsetInCU: 0x1060B, offset: 0x1060B, size: 0x8, addend: 0x0, symName: __ZNSt3__128__exception_guard_exceptionsINS_29_AllocatorDestroyRangeReverseINS_9allocatorINS_10shared_ptrI5PieceEEEEPS5_EEE10__completeB7v160006Ev, symObjAddr: 0x2A4C, symBinAddr: 0x100004FF0, symSize: 0x1C }
  - { offsetInCU: 0x10631, offset: 0x10631, size: 0x8, addend: 0x0, symName: __ZNSt3__128__exception_guard_exceptionsINS_29_AllocatorDestroyRangeReverseINS_9allocatorINS_10shared_ptrI5PieceEEEEPS5_EEED1B7v160006Ev, symObjAddr: 0x2A68, symBinAddr: 0x10000500C, symSize: 0x2C }
  - { offsetInCU: 0x1065B, offset: 0x1065B, size: 0x8, addend: 0x0, symName: __ZNSt3__128__exception_guard_exceptionsINS_29_AllocatorDestroyRangeReverseINS_9allocatorINS_10shared_ptrI5PieceEEEEPS5_EEEC1B7v160006ES8_, symObjAddr: 0x2A94, symBinAddr: 0x100005038, symSize: 0x34 }
  - { offsetInCU: 0x10694, offset: 0x10694, size: 0x8, addend: 0x0, symName: __ZNSt3__128__exception_guard_exceptionsINS_29_AllocatorDestroyRangeReverseINS_9allocatorINS_10shared_ptrI5PieceEEEEPS5_EEEC2B7v160006ES8_, symObjAddr: 0x2AC8, symBinAddr: 0x10000506C, symSize: 0x30 }
  - { offsetInCU: 0x106CD, offset: 0x106CD, size: 0x8, addend: 0x0, symName: __ZNSt3__129_AllocatorDestroyRangeReverseINS_9allocatorINS_10shared_ptrI5PieceEEEEPS4_EC2B7v160006ERS5_RS6_S9_, symObjAddr: 0x2AF8, symBinAddr: 0x10000509C, symSize: 0x38 }
  - { offsetInCU: 0x10724, offset: 0x10724, size: 0x8, addend: 0x0, symName: __ZNSt3__19allocatorINS_10shared_ptrI5PieceEEE9constructB7v160006IS3_JRS3_EEEvPT_DpOT0_, symObjAddr: 0x2B30, symBinAddr: 0x1000050D4, symSize: 0x30 }
  - { offsetInCU: 0x1077A, offset: 0x1077A, size: 0x8, addend: 0x0, symName: __ZNSt3__128__exception_guard_exceptionsINS_29_AllocatorDestroyRangeReverseINS_9allocatorINS_10shared_ptrI5PieceEEEEPS5_EEED2B7v160006Ev, symObjAddr: 0x2B60, symBinAddr: 0x100005104, symSize: 0x48 }
  - { offsetInCU: 0x107A4, offset: 0x107A4, size: 0x8, addend: 0x0, symName: __ZNKSt3__129_AllocatorDestroyRangeReverseINS_9allocatorINS_10shared_ptrI5PieceEEEEPS4_EclB7v160006Ev, symObjAddr: 0x2BA8, symBinAddr: 0x10000514C, symSize: 0x68 }
  - { offsetInCU: 0x107CA, offset: 0x107CA, size: 0x8, addend: 0x0, symName: __ZNSt3__116reverse_iteratorIPNS_10shared_ptrI5PieceEEEC1B7v160006ES4_, symObjAddr: 0x2C80, symBinAddr: 0x100005224, symSize: 0x34 }
  - { offsetInCU: 0x10802, offset: 0x10802, size: 0x8, addend: 0x0, symName: __ZNSt3__116reverse_iteratorIPNS_10shared_ptrI5PieceEEEppB7v160006Ev, symObjAddr: 0x2D20, symBinAddr: 0x1000052C4, symSize: 0x20 }
  - { offsetInCU: 0x10828, offset: 0x10828, size: 0x8, addend: 0x0, symName: __ZNKSt3__116reverse_iteratorIPNS_10shared_ptrI5PieceEEE4baseB7v160006Ev, symObjAddr: 0x2D40, symBinAddr: 0x1000052E4, symSize: 0x18 }
  - { offsetInCU: 0x10853, offset: 0x10853, size: 0x8, addend: 0x0, symName: __ZNSt3__119__to_address_helperINS_16reverse_iteratorIPNS_10shared_ptrI5PieceEEEEvE6__callB7v160006ERKS6_, symObjAddr: 0x2D58, symBinAddr: 0x1000052FC, symSize: 0x4C }
  - { offsetInCU: 0x10876, offset: 0x10876, size: 0x8, addend: 0x0, symName: __ZNKSt3__116reverse_iteratorIPNS_10shared_ptrI5PieceEEEptB7v160006Ev, symObjAddr: 0x2DA4, symBinAddr: 0x100005348, symSize: 0x24 }
  - { offsetInCU: 0x1089C, offset: 0x1089C, size: 0x8, addend: 0x0, symName: __ZNKSt3__116reverse_iteratorIPNS_10shared_ptrI5PieceEEEdeB7v160006Ev, symObjAddr: 0x2DC8, symBinAddr: 0x10000536C, symSize: 0x28 }
  - { offsetInCU: 0x108D0, offset: 0x108D0, size: 0x8, addend: 0x0, symName: __ZNSt3__116reverse_iteratorIPNS_10shared_ptrI5PieceEEEC2B7v160006ES4_, symObjAddr: 0x2DF0, symBinAddr: 0x100005394, symSize: 0x28 }
  - { offsetInCU: 0x10908, offset: 0x10908, size: 0x8, addend: 0x0, symName: __ZNSt3__16vectorINS0_INS_10shared_ptrI5PieceEENS_9allocatorIS3_EEEENS4_IS6_EEE21_ConstructTransactionD2B7v160006Ev, symObjAddr: 0x2E18, symBinAddr: 0x1000053BC, symSize: 0x20 }
  - { offsetInCU: 0x10932, offset: 0x10932, size: 0x8, addend: 0x0, symName: __ZNSt3__128__exception_guard_exceptionsINS_6vectorINS1_INS_10shared_ptrI5PieceEENS_9allocatorIS4_EEEENS5_IS7_EEE16__destroy_vectorEED2B7v160006Ev, symObjAddr: 0x2E38, symBinAddr: 0x1000053DC, symSize: 0x48 }
  - { offsetInCU: 0x1095C, offset: 0x1095C, size: 0x8, addend: 0x0, symName: __ZNSt3__16vectorINS0_INS_10shared_ptrI5PieceEENS_9allocatorIS3_EEEENS4_IS6_EEE16__destroy_vectorclB7v160006Ev, symObjAddr: 0x2E80, symBinAddr: 0x100005424, symSize: 0x9C }
  - { offsetInCU: 0x10982, offset: 0x10982, size: 0x8, addend: 0x0, symName: __ZNKSt3__16vectorINS0_INS_10shared_ptrI5PieceEENS_9allocatorIS3_EEEENS4_IS6_EEE17__annotate_deleteB7v160006Ev, symObjAddr: 0x2F1C, symBinAddr: 0x1000054C0, symSize: 0xD4 }
  - { offsetInCU: 0x109A8, offset: 0x109A8, size: 0x8, addend: 0x0, symName: __ZNSt3__16vectorINS0_INS_10shared_ptrI5PieceEENS_9allocatorIS3_EEEENS4_IS6_EEE7__clearB7v160006Ev, symObjAddr: 0x3000, symBinAddr: 0x1000055A4, symSize: 0x28 }
  - { offsetInCU: 0x109CE, offset: 0x109CE, size: 0x8, addend: 0x0, symName: __ZNSt3__116allocator_traitsINS_9allocatorINS_6vectorINS_10shared_ptrI5PieceEENS1_IS5_EEEEEEE10deallocateB7v160006ERS8_PS7_m, symObjAddr: 0x3028, symBinAddr: 0x1000055CC, symSize: 0x34 }
  - { offsetInCU: 0x10A10, offset: 0x10A10, size: 0x8, addend: 0x0, symName: __ZNKSt3__16vectorINS0_INS_10shared_ptrI5PieceEENS_9allocatorIS3_EEEENS4_IS6_EEE4sizeB7v160006Ev, symObjAddr: 0x305C, symBinAddr: 0x100005600, symSize: 0x28 }
  - { offsetInCU: 0x10A36, offset: 0x10A36, size: 0x8, addend: 0x0, symName: __ZNSt3__16vectorINS0_INS_10shared_ptrI5PieceEENS_9allocatorIS3_EEEENS4_IS6_EEE22__base_destruct_at_endB7v160006EPS6_, symObjAddr: 0x3084, symBinAddr: 0x100005628, symSize: 0xA0 }
  - { offsetInCU: 0x10A7A, offset: 0x10A7A, size: 0x8, addend: 0x0, symName: __ZNSt3__116allocator_traitsINS_9allocatorINS_6vectorINS_10shared_ptrI5PieceEENS1_IS5_EEEEEEE7destroyB7v160006IS7_vEEvRS8_PT_, symObjAddr: 0x3124, symBinAddr: 0x1000056C8, symSize: 0x2C }
  - { offsetInCU: 0x10AB7, offset: 0x10AB7, size: 0x8, addend: 0x0, symName: __ZNSt3__19allocatorINS_6vectorINS_10shared_ptrI5PieceEENS0_IS4_EEEEE7destroyB7v160006EPS6_, symObjAddr: 0x3150, symBinAddr: 0x1000056F4, symSize: 0x28 }
  - { offsetInCU: 0x10AEB, offset: 0x10AEB, size: 0x8, addend: 0x0, symName: __ZNSt3__19allocatorINS_6vectorINS_10shared_ptrI5PieceEENS0_IS4_EEEEE10deallocateB7v160006EPS6_m, symObjAddr: 0x3178, symBinAddr: 0x10000571C, symSize: 0x74 }
  - { offsetInCU: 0x10B2D, offset: 0x10B2D, size: 0x8, addend: 0x0, symName: __ZNSt3__16vectorINS_10shared_ptrI5PieceEENS_9allocatorIS3_EEED2B7v160006Ev, symObjAddr: 0x31EC, symBinAddr: 0x100005790, symSize: 0x3C }
  - { offsetInCU: 0x10B57, offset: 0x10B57, size: 0x8, addend: 0x0, symName: __ZNSt3__110shared_ptrI5PieceED2B7v160006Ev, symObjAddr: 0x3228, symBinAddr: 0x1000057CC, symSize: 0x54 }
  - { offsetInCU: 0x10B81, offset: 0x10B81, size: 0x8, addend: 0x0, symName: __ZNSt3__119__shared_weak_count16__release_sharedB7v160006Ev, symObjAddr: 0x327C, symBinAddr: 0x100005820, symSize: 0x3C }
  - { offsetInCU: 0x10BA7, offset: 0x10BA7, size: 0x8, addend: 0x0, symName: __ZNSt3__114__shared_count16__release_sharedB7v160006Ev, symObjAddr: 0x32B8, symBinAddr: 0x10000585C, symSize: 0x7C }
  - { offsetInCU: 0x10BCD, offset: 0x10BCD, size: 0x8, addend: 0x0, symName: __ZNSt3__16vectorINS0_INS_10shared_ptrI5PieceEENS_9allocatorIS3_EEEENS4_IS6_EEEixB7v160006Em, symObjAddr: 0x33A4, symBinAddr: 0x100005948, symSize: 0x2C }
  - { offsetInCU: 0x10C04, offset: 0x10C04, size: 0x8, addend: 0x0, symName: __ZNSt3__16vectorINS_10shared_ptrI5PieceEENS_9allocatorIS3_EEEixB7v160006Em, symObjAddr: 0x33D0, symBinAddr: 0x100005974, symSize: 0x24 }
  - { offsetInCU: 0x10C5E, offset: 0x10C5E, size: 0x8, addend: 0x0, symName: __ZNSt3__110shared_ptrI5PieceEaSB7v160006I4PawnvEERS2_ONS0_IT_EE, symObjAddr: 0x33F4, symBinAddr: 0x100005998, symSize: 0x50 }
  - { offsetInCU: 0x10C9D, offset: 0x10C9D, size: 0x8, addend: 0x0, symName: __ZNSt3__110shared_ptrI4PawnED1B7v160006Ev, symObjAddr: 0x3444, symBinAddr: 0x1000059E8, symSize: 0x2C }
  - { offsetInCU: 0x10CEA, offset: 0x10CEA, size: 0x8, addend: 0x0, symName: __ZNSt3__110shared_ptrI5PieceEaSB7v160006I4RookvEERS2_ONS0_IT_EE, symObjAddr: 0x34B0, symBinAddr: 0x100005A54, symSize: 0x50 }
  - { offsetInCU: 0x10D29, offset: 0x10D29, size: 0x8, addend: 0x0, symName: __ZNSt3__110shared_ptrI5PieceEaSB7v160006ERKS2_, symObjAddr: 0x3500, symBinAddr: 0x100005AA4, symSize: 0x6C }
  - { offsetInCU: 0x10D5E, offset: 0x10D5E, size: 0x8, addend: 0x0, symName: __ZNSt3__110shared_ptrI4RookED1B7v160006Ev, symObjAddr: 0x356C, symBinAddr: 0x100005B10, symSize: 0x2C }
  - { offsetInCU: 0x10DAB, offset: 0x10DAB, size: 0x8, addend: 0x0, symName: __ZNSt3__110shared_ptrI5PieceEaSB7v160006I6KnightvEERS2_ONS0_IT_EE, symObjAddr: 0x35D8, symBinAddr: 0x100005B7C, symSize: 0x50 }
  - { offsetInCU: 0x10DEA, offset: 0x10DEA, size: 0x8, addend: 0x0, symName: __ZNSt3__110shared_ptrI6KnightED1B7v160006Ev, symObjAddr: 0x3628, symBinAddr: 0x100005BCC, symSize: 0x2C }
  - { offsetInCU: 0x10E37, offset: 0x10E37, size: 0x8, addend: 0x0, symName: __ZNSt3__110shared_ptrI5PieceEaSB7v160006I6BishopvEERS2_ONS0_IT_EE, symObjAddr: 0x3694, symBinAddr: 0x100005C38, symSize: 0x50 }
  - { offsetInCU: 0x10E76, offset: 0x10E76, size: 0x8, addend: 0x0, symName: __ZNSt3__110shared_ptrI6BishopED1B7v160006Ev, symObjAddr: 0x36E4, symBinAddr: 0x100005C88, symSize: 0x2C }
  - { offsetInCU: 0x10EC3, offset: 0x10EC3, size: 0x8, addend: 0x0, symName: __ZNSt3__110shared_ptrI5PieceEaSB7v160006I4KingvEERS2_ONS0_IT_EE, symObjAddr: 0x3750, symBinAddr: 0x100005CF4, symSize: 0x50 }
  - { offsetInCU: 0x10F02, offset: 0x10F02, size: 0x8, addend: 0x0, symName: __ZNSt3__110shared_ptrI4KingED1B7v160006Ev, symObjAddr: 0x37A0, symBinAddr: 0x100005D44, symSize: 0x2C }
  - { offsetInCU: 0x10F2C, offset: 0x10F2C, size: 0x8, addend: 0x0, symName: __ZNSt3__19allocatorI4PawnEC1B7v160006Ev, symObjAddr: 0x3864, symBinAddr: 0x100005E08, symSize: 0x2C }
  - { offsetInCU: 0x10F92, offset: 0x10F92, size: 0x8, addend: 0x0, symName: __ZNSt3__118__allocation_guardINS_9allocatorINS_20__shared_ptr_emplaceI4PawnNS1_IS3_EEEEEEEC1B7v160006IS4_EET_m, symObjAddr: 0x3890, symBinAddr: 0x100005E34, symSize: 0x34 }
  - { offsetInCU: 0x10FE1, offset: 0x10FE1, size: 0x8, addend: 0x0, symName: __ZNKSt3__118__allocation_guardINS_9allocatorINS_20__shared_ptr_emplaceI4PawnNS1_IS3_EEEEEEE5__getB7v160006Ev, symObjAddr: 0x38C4, symBinAddr: 0x100005E68, symSize: 0x18 }
  - { offsetInCU: 0x1100C, offset: 0x1100C, size: 0x8, addend: 0x0, symName: __ZNSt3__120__shared_ptr_emplaceI4PawnNS_9allocatorIS1_EEEC1B7v160006IJ11AffiliationEEES3_DpOT_, symObjAddr: 0x38DC, symBinAddr: 0x100005E80, symSize: 0x34 }
  - { offsetInCU: 0x1105F, offset: 0x1105F, size: 0x8, addend: 0x0, symName: __ZNSt3__118__allocation_guardINS_9allocatorINS_20__shared_ptr_emplaceI4PawnNS1_IS3_EEEEEEE13__release_ptrB7v160006Ev, symObjAddr: 0x3910, symBinAddr: 0x100005EB4, symSize: 0x24 }
  - { offsetInCU: 0x11093, offset: 0x11093, size: 0x8, addend: 0x0, symName: __ZNSt3__110shared_ptrI4PawnE27__create_with_control_blockB7v160006IS1_NS_20__shared_ptr_emplaceIS1_NS_9allocatorIS1_EEEEEES2_PT_PT0_, symObjAddr: 0x3934, symBinAddr: 0x100005ED8, symSize: 0xC0 }
  - { offsetInCU: 0x110E8, offset: 0x110E8, size: 0x8, addend: 0x0, symName: __ZNSt3__120__shared_ptr_emplaceI4PawnNS_9allocatorIS1_EEE10__get_elemB7v160006Ev, symObjAddr: 0x39F4, symBinAddr: 0x100005F98, symSize: 0x28 }
  - { offsetInCU: 0x1110E, offset: 0x1110E, size: 0x8, addend: 0x0, symName: __ZNSt3__118__allocation_guardINS_9allocatorINS_20__shared_ptr_emplaceI4PawnNS1_IS3_EEEEEEED1B7v160006Ev, symObjAddr: 0x3A1C, symBinAddr: 0x100005FC0, symSize: 0x2C }
  - { offsetInCU: 0x11138, offset: 0x11138, size: 0x8, addend: 0x0, symName: __ZNSt3__118__allocation_guardINS_9allocatorINS_20__shared_ptr_emplaceI4PawnNS1_IS3_EEEEEEEC2B7v160006IS4_EET_m, symObjAddr: 0x3A48, symBinAddr: 0x100005FEC, symSize: 0x50 }
  - { offsetInCU: 0x11187, offset: 0x11187, size: 0x8, addend: 0x0, symName: __ZNSt3__19allocatorINS_20__shared_ptr_emplaceI4PawnNS0_IS2_EEEEEC1B7v160006IS2_EERKNS0_IT_EE, symObjAddr: 0x3A98, symBinAddr: 0x10000603C, symSize: 0x34 }
  - { offsetInCU: 0x111C5, offset: 0x111C5, size: 0x8, addend: 0x0, symName: __ZNSt3__116allocator_traitsINS_9allocatorINS_20__shared_ptr_emplaceI4PawnNS1_IS3_EEEEEEE8allocateB7v160006ERS6_m, symObjAddr: 0x3ACC, symBinAddr: 0x100006070, symSize: 0x2C }
  - { offsetInCU: 0x111F8, offset: 0x111F8, size: 0x8, addend: 0x0, symName: __ZNSt3__19allocatorINS_20__shared_ptr_emplaceI4PawnNS0_IS2_EEEEEC2B7v160006IS2_EERKNS0_IT_EE, symObjAddr: 0x3AF8, symBinAddr: 0x10000609C, symSize: 0x30 }
  - { offsetInCU: 0x11236, offset: 0x11236, size: 0x8, addend: 0x0, symName: __ZNSt3__116__non_trivial_ifILb1ENS_9allocatorINS_20__shared_ptr_emplaceI4PawnNS1_IS3_EEEEEEEC2B7v160006Ev, symObjAddr: 0x3B28, symBinAddr: 0x1000060CC, symSize: 0x14 }
  - { offsetInCU: 0x11260, offset: 0x11260, size: 0x8, addend: 0x0, symName: __ZNSt3__19allocatorINS_20__shared_ptr_emplaceI4PawnNS0_IS2_EEEEE8allocateB7v160006Em, symObjAddr: 0x3B3C, symBinAddr: 0x1000060E0, symSize: 0x8C }
  - { offsetInCU: 0x1129E, offset: 0x1129E, size: 0x8, addend: 0x0, symName: __ZNSt3__116allocator_traitsINS_9allocatorINS_20__shared_ptr_emplaceI4PawnNS1_IS3_EEEEEEE8max_sizeB7v160006IS6_vEEmRKS6_, symObjAddr: 0x3BC8, symBinAddr: 0x10000616C, symSize: 0x24 }
  - { offsetInCU: 0x112CC, offset: 0x112CC, size: 0x8, addend: 0x0, symName: __ZNKSt3__19allocatorINS_20__shared_ptr_emplaceI4PawnNS0_IS2_EEEEE8max_sizeB7v160006Ev, symObjAddr: 0x3BEC, symBinAddr: 0x100006190, symSize: 0x18 }
  - { offsetInCU: 0x112F2, offset: 0x112F2, size: 0x8, addend: 0x0, symName: __ZNSt3__120__shared_ptr_emplaceI4PawnNS_9allocatorIS1_EEEC2B7v160006IJ11AffiliationEEES3_DpOT_, symObjAddr: 0x3C04, symBinAddr: 0x1000061A8, symSize: 0xC8 }
  - { offsetInCU: 0x11345, offset: 0x11345, size: 0x8, addend: 0x0, symName: __ZNSt3__119__shared_weak_countC2B7v160006El, symObjAddr: 0x3CCC, symBinAddr: 0x100006270, symSize: 0x54 }
  - { offsetInCU: 0x1137D, offset: 0x1137D, size: 0x8, addend: 0x0, symName: __ZNSt3__120__shared_ptr_emplaceI4PawnNS_9allocatorIS1_EEE8_StorageC1B7v160006EOS3_, symObjAddr: 0x3D20, symBinAddr: 0x1000062C4, symSize: 0x34 }
  - { offsetInCU: 0x113B6, offset: 0x113B6, size: 0x8, addend: 0x0, symName: __ZN4PawnC1E11Affiliation, symObjAddr: 0x3D54, symBinAddr: 0x1000062F8, symSize: 0x34 }
  - { offsetInCU: 0x113EE, offset: 0x113EE, size: 0x8, addend: 0x0, symName: __ZNSt3__120__shared_ptr_emplaceI4PawnNS_9allocatorIS1_EEE8_StorageD1B7v160006Ev, symObjAddr: 0x3D88, symBinAddr: 0x10000632C, symSize: 0x2C }
  - { offsetInCU: 0x11418, offset: 0x11418, size: 0x8, addend: 0x0, symName: __ZNSt3__120__shared_ptr_emplaceI4PawnNS_9allocatorIS1_EEED1Ev, symObjAddr: 0x3DB4, symBinAddr: 0x100006358, symSize: 0x2C }
  - { offsetInCU: 0x11445, offset: 0x11445, size: 0x8, addend: 0x0, symName: __ZNSt3__120__shared_ptr_emplaceI4PawnNS_9allocatorIS1_EEED0Ev, symObjAddr: 0x3DE0, symBinAddr: 0x100006384, symSize: 0x58 }
  - { offsetInCU: 0x11472, offset: 0x11472, size: 0x8, addend: 0x0, symName: __ZNSt3__120__shared_ptr_emplaceI4PawnNS_9allocatorIS1_EEE16__on_zero_sharedEv, symObjAddr: 0x3E38, symBinAddr: 0x1000063DC, symSize: 0x4C }
  - { offsetInCU: 0x11498, offset: 0x11498, size: 0x8, addend: 0x0, symName: __ZNSt3__120__shared_ptr_emplaceI4PawnNS_9allocatorIS1_EEE21__on_zero_shared_weakEv, symObjAddr: 0x3E84, symBinAddr: 0x100006428, symSize: 0x74 }
  - { offsetInCU: 0x114D9, offset: 0x114D9, size: 0x8, addend: 0x0, symName: __ZNSt3__114__shared_countC2B7v160006El, symObjAddr: 0x3EF8, symBinAddr: 0x10000649C, symSize: 0x30 }
  - { offsetInCU: 0x11511, offset: 0x11511, size: 0x8, addend: 0x0, symName: __ZNSt3__120__shared_ptr_emplaceI4PawnNS_9allocatorIS1_EEE8_StorageC2B7v160006EOS3_, symObjAddr: 0x3F28, symBinAddr: 0x1000064CC, symSize: 0x30 }
  - { offsetInCU: 0x1154A, offset: 0x1154A, size: 0x8, addend: 0x0, symName: __ZNSt3__120__shared_ptr_emplaceI4PawnNS_9allocatorIS1_EEE8_Storage11__get_allocEv, symObjAddr: 0x3F58, symBinAddr: 0x1000064FC, symSize: 0x3C }
  - { offsetInCU: 0x1159D, offset: 0x1159D, size: 0x8, addend: 0x0, symName: __ZNSt3__117__compressed_pairINS_9allocatorI4PawnEES2_E16__get_first_baseB7v160006EPS4_, symObjAddr: 0x3F94, symBinAddr: 0x100006538, symSize: 0x14 }
  - { offsetInCU: 0x115C0, offset: 0x115C0, size: 0x8, addend: 0x0, symName: __ZN4PawnC2E11Affiliation, symObjAddr: 0x3FA8, symBinAddr: 0x10000654C, symSize: 0x4C }
  - { offsetInCU: 0x115F8, offset: 0x115F8, size: 0x8, addend: 0x0, symName: __ZN5PieceC2E11Affiliation, symObjAddr: 0x3FF4, symBinAddr: 0x100006598, symSize: 0x30 }
  - { offsetInCU: 0x11630, offset: 0x11630, size: 0x8, addend: 0x0, symName: __ZN4PawnD1Ev, symObjAddr: 0x4024, symBinAddr: 0x1000065C8, symSize: 0x2C }
  - { offsetInCU: 0x1165C, offset: 0x1165C, size: 0x8, addend: 0x0, symName: __ZN4PawnD0Ev, symObjAddr: 0x4050, symBinAddr: 0x1000065F4, symSize: 0x58 }
  - { offsetInCU: 0x11688, offset: 0x11688, size: 0x8, addend: 0x0, symName: __ZNK4Pawn9getSymbolEv, symObjAddr: 0x40A8, symBinAddr: 0x10000664C, symSize: 0x38 }
  - { offsetInCU: 0x116AE, offset: 0x116AE, size: 0x8, addend: 0x0, symName: __ZN5PieceD1Ev, symObjAddr: 0x40E0, symBinAddr: 0x100006684, symSize: 0x14 }
  - { offsetInCU: 0x116D8, offset: 0x116D8, size: 0x8, addend: 0x0, symName: __ZN5PieceD0Ev, symObjAddr: 0x40F4, symBinAddr: 0x100006698, symSize: 0xC }
  - { offsetInCU: 0x11702, offset: 0x11702, size: 0x8, addend: 0x0, symName: __ZN4PawnD2Ev, symObjAddr: 0x4100, symBinAddr: 0x1000066A4, symSize: 0x2C }
  - { offsetInCU: 0x1172E, offset: 0x1172E, size: 0x8, addend: 0x0, symName: __ZN5PieceD2Ev, symObjAddr: 0x412C, symBinAddr: 0x1000066D0, symSize: 0x14 }
  - { offsetInCU: 0x11758, offset: 0x11758, size: 0x8, addend: 0x0, symName: __ZNSt3__120__shared_ptr_emplaceI4PawnNS_9allocatorIS1_EEE8_StorageD2B7v160006Ev, symObjAddr: 0x4140, symBinAddr: 0x1000066E4, symSize: 0x2C }
  - { offsetInCU: 0x11782, offset: 0x11782, size: 0x8, addend: 0x0, symName: __ZNSt3__120__shared_ptr_emplaceI4PawnNS_9allocatorIS1_EEED2Ev, symObjAddr: 0x416C, symBinAddr: 0x100006710, symSize: 0x78 }
  - { offsetInCU: 0x117AF, offset: 0x117AF, size: 0x8, addend: 0x0, symName: __ZNSt3__120__shared_ptr_emplaceI4PawnNS_9allocatorIS1_EEE11__get_allocB7v160006Ev, symObjAddr: 0x41E4, symBinAddr: 0x100006788, symSize: 0x28 }
  - { offsetInCU: 0x117D5, offset: 0x117D5, size: 0x8, addend: 0x0, symName: __ZNSt3__116allocator_traitsINS_9allocatorINS_20__shared_ptr_emplaceI4PawnNS1_IS3_EEEEEEE10deallocateB7v160006ERS6_PS5_m, symObjAddr: 0x420C, symBinAddr: 0x1000067B0, symSize: 0x34 }
  - { offsetInCU: 0x11817, offset: 0x11817, size: 0x8, addend: 0x0, symName: __ZNSt3__114pointer_traitsIPNS_20__shared_ptr_emplaceI4PawnNS_9allocatorIS2_EEEEE10pointer_toB7v160006ERS5_, symObjAddr: 0x4240, symBinAddr: 0x1000067E4, symSize: 0x14 }
  - { offsetInCU: 0x1183A, offset: 0x1183A, size: 0x8, addend: 0x0, symName: __ZNSt3__19allocatorINS_20__shared_ptr_emplaceI4PawnNS0_IS2_EEEEE10deallocateB7v160006EPS4_m, symObjAddr: 0x4254, symBinAddr: 0x1000067F8, symSize: 0x74 }
  - { offsetInCU: 0x1187C, offset: 0x1187C, size: 0x8, addend: 0x0, symName: __ZNSt3__110shared_ptrI4PawnEC1B7v160006Ev, symObjAddr: 0x42C8, symBinAddr: 0x10000686C, symSize: 0x2C }
  - { offsetInCU: 0x118A6, offset: 0x118A6, size: 0x8, addend: 0x0, symName: __ZNSt3__110shared_ptrI4PawnE18__enable_weak_thisB7v160006Ez, symObjAddr: 0x42F4, symBinAddr: 0x100006898, symSize: 0x10 }
  - { offsetInCU: 0x118CD, offset: 0x118CD, size: 0x8, addend: 0x0, symName: __ZNSt3__110shared_ptrI4PawnEC2B7v160006Ev, symObjAddr: 0x4304, symBinAddr: 0x1000068A8, symSize: 0x1C }
  - { offsetInCU: 0x118F7, offset: 0x118F7, size: 0x8, addend: 0x0, symName: __ZNSt3__120__shared_ptr_emplaceI4PawnNS_9allocatorIS1_EEE8_Storage10__get_elemEv, symObjAddr: 0x4320, symBinAddr: 0x1000068C4, symSize: 0x3C }
  - { offsetInCU: 0x1194A, offset: 0x1194A, size: 0x8, addend: 0x0, symName: __ZNSt3__117__compressed_pairINS_9allocatorI4PawnEES2_E17__get_second_baseB7v160006EPS4_, symObjAddr: 0x435C, symBinAddr: 0x100006900, symSize: 0x14 }
  - { offsetInCU: 0x1196D, offset: 0x1196D, size: 0x8, addend: 0x0, symName: __ZNSt3__118__allocation_guardINS_9allocatorINS_20__shared_ptr_emplaceI4PawnNS1_IS3_EEEEEEED2B7v160006Ev, symObjAddr: 0x4370, symBinAddr: 0x100006914, symSize: 0x58 }
  - { offsetInCU: 0x11997, offset: 0x11997, size: 0x8, addend: 0x0, symName: __ZNSt3__19allocatorI4PawnEC2B7v160006Ev, symObjAddr: 0x43C8, symBinAddr: 0x10000696C, symSize: 0x2C }
  - { offsetInCU: 0x119C1, offset: 0x119C1, size: 0x8, addend: 0x0, symName: __ZNSt3__116__non_trivial_ifILb1ENS_9allocatorI4PawnEEEC2B7v160006Ev, symObjAddr: 0x43F4, symBinAddr: 0x100006998, symSize: 0x14 }
  - { offsetInCU: 0x119EB, offset: 0x119EB, size: 0x8, addend: 0x0, symName: __ZNSt3__110shared_ptrI5PieceEC1B7v160006I4PawnvEEONS0_IT_EE, symObjAddr: 0x4408, symBinAddr: 0x1000069AC, symSize: 0x34 }
  - { offsetInCU: 0x11A2E, offset: 0x11A2E, size: 0x8, addend: 0x0, symName: __ZNSt3__110shared_ptrI5PieceE4swapB7v160006ERS2_, symObjAddr: 0x443C, symBinAddr: 0x1000069E0, symSize: 0x64 }
  - { offsetInCU: 0x11A63, offset: 0x11A63, size: 0x8, addend: 0x0, symName: __ZNSt3__110shared_ptrI5PieceEC2B7v160006I4PawnvEEONS0_IT_EE, symObjAddr: 0x44A0, symBinAddr: 0x100006A44, symSize: 0x40 }
  - { offsetInCU: 0x11AA6, offset: 0x11AA6, size: 0x8, addend: 0x0, symName: __ZNSt3__110shared_ptrI4PawnED2B7v160006Ev, symObjAddr: 0x4558, symBinAddr: 0x100006AFC, symSize: 0x54 }
  - { offsetInCU: 0x11AD0, offset: 0x11AD0, size: 0x8, addend: 0x0, symName: __ZNSt3__19allocatorI4RookEC1B7v160006Ev, symObjAddr: 0x4644, symBinAddr: 0x100006BE8, symSize: 0x2C }
  - { offsetInCU: 0x11B36, offset: 0x11B36, size: 0x8, addend: 0x0, symName: __ZNSt3__118__allocation_guardINS_9allocatorINS_20__shared_ptr_emplaceI4RookNS1_IS3_EEEEEEEC1B7v160006IS4_EET_m, symObjAddr: 0x4670, symBinAddr: 0x100006C14, symSize: 0x34 }
  - { offsetInCU: 0x11B85, offset: 0x11B85, size: 0x8, addend: 0x0, symName: __ZNKSt3__118__allocation_guardINS_9allocatorINS_20__shared_ptr_emplaceI4RookNS1_IS3_EEEEEEE5__getB7v160006Ev, symObjAddr: 0x46A4, symBinAddr: 0x100006C48, symSize: 0x18 }
  - { offsetInCU: 0x11BAB, offset: 0x11BAB, size: 0x8, addend: 0x0, symName: __ZNSt3__120__shared_ptr_emplaceI4RookNS_9allocatorIS1_EEEC1B7v160006IJ11AffiliationEEES3_DpOT_, symObjAddr: 0x46BC, symBinAddr: 0x100006C60, symSize: 0x34 }
  - { offsetInCU: 0x11BFE, offset: 0x11BFE, size: 0x8, addend: 0x0, symName: __ZNSt3__118__allocation_guardINS_9allocatorINS_20__shared_ptr_emplaceI4RookNS1_IS3_EEEEEEE13__release_ptrB7v160006Ev, symObjAddr: 0x46F0, symBinAddr: 0x100006C94, symSize: 0x24 }
  - { offsetInCU: 0x11C32, offset: 0x11C32, size: 0x8, addend: 0x0, symName: __ZNSt3__110shared_ptrI4RookE27__create_with_control_blockB7v160006IS1_NS_20__shared_ptr_emplaceIS1_NS_9allocatorIS1_EEEEEES2_PT_PT0_, symObjAddr: 0x4714, symBinAddr: 0x100006CB8, symSize: 0xC0 }
  - { offsetInCU: 0x11C87, offset: 0x11C87, size: 0x8, addend: 0x0, symName: __ZNSt3__120__shared_ptr_emplaceI4RookNS_9allocatorIS1_EEE10__get_elemB7v160006Ev, symObjAddr: 0x47D4, symBinAddr: 0x100006D78, symSize: 0x28 }
  - { offsetInCU: 0x11CAD, offset: 0x11CAD, size: 0x8, addend: 0x0, symName: __ZNSt3__118__allocation_guardINS_9allocatorINS_20__shared_ptr_emplaceI4RookNS1_IS3_EEEEEEED1B7v160006Ev, symObjAddr: 0x47FC, symBinAddr: 0x100006DA0, symSize: 0x2C }
  - { offsetInCU: 0x11CD7, offset: 0x11CD7, size: 0x8, addend: 0x0, symName: __ZNSt3__118__allocation_guardINS_9allocatorINS_20__shared_ptr_emplaceI4RookNS1_IS3_EEEEEEEC2B7v160006IS4_EET_m, symObjAddr: 0x4828, symBinAddr: 0x100006DCC, symSize: 0x50 }
  - { offsetInCU: 0x11D26, offset: 0x11D26, size: 0x8, addend: 0x0, symName: __ZNSt3__19allocatorINS_20__shared_ptr_emplaceI4RookNS0_IS2_EEEEEC1B7v160006IS2_EERKNS0_IT_EE, symObjAddr: 0x4878, symBinAddr: 0x100006E1C, symSize: 0x34 }
  - { offsetInCU: 0x11D64, offset: 0x11D64, size: 0x8, addend: 0x0, symName: __ZNSt3__116allocator_traitsINS_9allocatorINS_20__shared_ptr_emplaceI4RookNS1_IS3_EEEEEEE8allocateB7v160006ERS6_m, symObjAddr: 0x48AC, symBinAddr: 0x100006E50, symSize: 0x2C }
  - { offsetInCU: 0x11D97, offset: 0x11D97, size: 0x8, addend: 0x0, symName: __ZNSt3__19allocatorINS_20__shared_ptr_emplaceI4RookNS0_IS2_EEEEEC2B7v160006IS2_EERKNS0_IT_EE, symObjAddr: 0x48D8, symBinAddr: 0x100006E7C, symSize: 0x30 }
  - { offsetInCU: 0x11DD5, offset: 0x11DD5, size: 0x8, addend: 0x0, symName: __ZNSt3__116__non_trivial_ifILb1ENS_9allocatorINS_20__shared_ptr_emplaceI4RookNS1_IS3_EEEEEEEC2B7v160006Ev, symObjAddr: 0x4908, symBinAddr: 0x100006EAC, symSize: 0x14 }
  - { offsetInCU: 0x11DFF, offset: 0x11DFF, size: 0x8, addend: 0x0, symName: __ZNSt3__19allocatorINS_20__shared_ptr_emplaceI4RookNS0_IS2_EEEEE8allocateB7v160006Em, symObjAddr: 0x491C, symBinAddr: 0x100006EC0, symSize: 0x8C }
  - { offsetInCU: 0x11E3D, offset: 0x11E3D, size: 0x8, addend: 0x0, symName: __ZNSt3__116allocator_traitsINS_9allocatorINS_20__shared_ptr_emplaceI4RookNS1_IS3_EEEEEEE8max_sizeB7v160006IS6_vEEmRKS6_, symObjAddr: 0x49A8, symBinAddr: 0x100006F4C, symSize: 0x24 }
  - { offsetInCU: 0x11E6B, offset: 0x11E6B, size: 0x8, addend: 0x0, symName: __ZNKSt3__19allocatorINS_20__shared_ptr_emplaceI4RookNS0_IS2_EEEEE8max_sizeB7v160006Ev, symObjAddr: 0x49CC, symBinAddr: 0x100006F70, symSize: 0x18 }
  - { offsetInCU: 0x11E91, offset: 0x11E91, size: 0x8, addend: 0x0, symName: __ZNSt3__120__shared_ptr_emplaceI4RookNS_9allocatorIS1_EEEC2B7v160006IJ11AffiliationEEES3_DpOT_, symObjAddr: 0x49E4, symBinAddr: 0x100006F88, symSize: 0xC8 }
  - { offsetInCU: 0x11EE4, offset: 0x11EE4, size: 0x8, addend: 0x0, symName: __ZNSt3__120__shared_ptr_emplaceI4RookNS_9allocatorIS1_EEE8_StorageC1B7v160006EOS3_, symObjAddr: 0x4AAC, symBinAddr: 0x100007050, symSize: 0x34 }
  - { offsetInCU: 0x11F1D, offset: 0x11F1D, size: 0x8, addend: 0x0, symName: __ZN4RookC1E11Affiliation, symObjAddr: 0x4AE0, symBinAddr: 0x100007084, symSize: 0x34 }
  - { offsetInCU: 0x11F55, offset: 0x11F55, size: 0x8, addend: 0x0, symName: __ZNSt3__120__shared_ptr_emplaceI4RookNS_9allocatorIS1_EEE8_StorageD1B7v160006Ev, symObjAddr: 0x4B14, symBinAddr: 0x1000070B8, symSize: 0x2C }
  - { offsetInCU: 0x11F7F, offset: 0x11F7F, size: 0x8, addend: 0x0, symName: __ZNSt3__120__shared_ptr_emplaceI4RookNS_9allocatorIS1_EEED1Ev, symObjAddr: 0x4B40, symBinAddr: 0x1000070E4, symSize: 0x2C }
  - { offsetInCU: 0x11FAC, offset: 0x11FAC, size: 0x8, addend: 0x0, symName: __ZNSt3__120__shared_ptr_emplaceI4RookNS_9allocatorIS1_EEED0Ev, symObjAddr: 0x4B6C, symBinAddr: 0x100007110, symSize: 0x58 }
  - { offsetInCU: 0x11FD9, offset: 0x11FD9, size: 0x8, addend: 0x0, symName: __ZNSt3__120__shared_ptr_emplaceI4RookNS_9allocatorIS1_EEE16__on_zero_sharedEv, symObjAddr: 0x4BC4, symBinAddr: 0x100007168, symSize: 0x4C }
  - { offsetInCU: 0x11FFF, offset: 0x11FFF, size: 0x8, addend: 0x0, symName: __ZNSt3__120__shared_ptr_emplaceI4RookNS_9allocatorIS1_EEE21__on_zero_shared_weakEv, symObjAddr: 0x4C10, symBinAddr: 0x1000071B4, symSize: 0x74 }
  - { offsetInCU: 0x12040, offset: 0x12040, size: 0x8, addend: 0x0, symName: __ZNSt3__120__shared_ptr_emplaceI4RookNS_9allocatorIS1_EEE8_StorageC2B7v160006EOS3_, symObjAddr: 0x4C84, symBinAddr: 0x100007228, symSize: 0x30 }
  - { offsetInCU: 0x12079, offset: 0x12079, size: 0x8, addend: 0x0, symName: __ZNSt3__120__shared_ptr_emplaceI4RookNS_9allocatorIS1_EEE8_Storage11__get_allocEv, symObjAddr: 0x4CB4, symBinAddr: 0x100007258, symSize: 0x3C }
  - { offsetInCU: 0x120CC, offset: 0x120CC, size: 0x8, addend: 0x0, symName: __ZNSt3__117__compressed_pairINS_9allocatorI4RookEES2_E16__get_first_baseB7v160006EPS4_, symObjAddr: 0x4CF0, symBinAddr: 0x100007294, symSize: 0x14 }
  - { offsetInCU: 0x120EF, offset: 0x120EF, size: 0x8, addend: 0x0, symName: __ZN4RookC2E11Affiliation, symObjAddr: 0x4D04, symBinAddr: 0x1000072A8, symSize: 0x4C }
  - { offsetInCU: 0x12127, offset: 0x12127, size: 0x8, addend: 0x0, symName: __ZN4RookD1Ev, symObjAddr: 0x4D50, symBinAddr: 0x1000072F4, symSize: 0x2C }
  - { offsetInCU: 0x12153, offset: 0x12153, size: 0x8, addend: 0x0, symName: __ZN4RookD0Ev, symObjAddr: 0x4D7C, symBinAddr: 0x100007320, symSize: 0x58 }
  - { offsetInCU: 0x1217F, offset: 0x1217F, size: 0x8, addend: 0x0, symName: __ZNK4Rook9getSymbolEv, symObjAddr: 0x4DD4, symBinAddr: 0x100007378, symSize: 0x38 }
  - { offsetInCU: 0x121A5, offset: 0x121A5, size: 0x8, addend: 0x0, symName: __ZN4RookD2Ev, symObjAddr: 0x4E0C, symBinAddr: 0x1000073B0, symSize: 0x2C }
  - { offsetInCU: 0x121D1, offset: 0x121D1, size: 0x8, addend: 0x0, symName: __ZNSt3__120__shared_ptr_emplaceI4RookNS_9allocatorIS1_EEE8_StorageD2B7v160006Ev, symObjAddr: 0x4E38, symBinAddr: 0x1000073DC, symSize: 0x2C }
  - { offsetInCU: 0x121FB, offset: 0x121FB, size: 0x8, addend: 0x0, symName: __ZNSt3__120__shared_ptr_emplaceI4RookNS_9allocatorIS1_EEED2Ev, symObjAddr: 0x4E64, symBinAddr: 0x100007408, symSize: 0x78 }
  - { offsetInCU: 0x12228, offset: 0x12228, size: 0x8, addend: 0x0, symName: __ZNSt3__120__shared_ptr_emplaceI4RookNS_9allocatorIS1_EEE11__get_allocB7v160006Ev, symObjAddr: 0x4EDC, symBinAddr: 0x100007480, symSize: 0x28 }
  - { offsetInCU: 0x1224E, offset: 0x1224E, size: 0x8, addend: 0x0, symName: __ZNSt3__116allocator_traitsINS_9allocatorINS_20__shared_ptr_emplaceI4RookNS1_IS3_EEEEEEE10deallocateB7v160006ERS6_PS5_m, symObjAddr: 0x4F04, symBinAddr: 0x1000074A8, symSize: 0x34 }
  - { offsetInCU: 0x12290, offset: 0x12290, size: 0x8, addend: 0x0, symName: __ZNSt3__114pointer_traitsIPNS_20__shared_ptr_emplaceI4RookNS_9allocatorIS2_EEEEE10pointer_toB7v160006ERS5_, symObjAddr: 0x4F38, symBinAddr: 0x1000074DC, symSize: 0x14 }
  - { offsetInCU: 0x122B3, offset: 0x122B3, size: 0x8, addend: 0x0, symName: __ZNSt3__19allocatorINS_20__shared_ptr_emplaceI4RookNS0_IS2_EEEEE10deallocateB7v160006EPS4_m, symObjAddr: 0x4F4C, symBinAddr: 0x1000074F0, symSize: 0x74 }
  - { offsetInCU: 0x122F5, offset: 0x122F5, size: 0x8, addend: 0x0, symName: __ZNSt3__110shared_ptrI4RookEC1B7v160006Ev, symObjAddr: 0x4FC0, symBinAddr: 0x100007564, symSize: 0x2C }
  - { offsetInCU: 0x1231F, offset: 0x1231F, size: 0x8, addend: 0x0, symName: __ZNSt3__110shared_ptrI4RookE18__enable_weak_thisB7v160006Ez, symObjAddr: 0x4FEC, symBinAddr: 0x100007590, symSize: 0x10 }
  - { offsetInCU: 0x12346, offset: 0x12346, size: 0x8, addend: 0x0, symName: __ZNSt3__110shared_ptrI4RookEC2B7v160006Ev, symObjAddr: 0x4FFC, symBinAddr: 0x1000075A0, symSize: 0x1C }
  - { offsetInCU: 0x12370, offset: 0x12370, size: 0x8, addend: 0x0, symName: __ZNSt3__120__shared_ptr_emplaceI4RookNS_9allocatorIS1_EEE8_Storage10__get_elemEv, symObjAddr: 0x5018, symBinAddr: 0x1000075BC, symSize: 0x3C }
  - { offsetInCU: 0x123C3, offset: 0x123C3, size: 0x8, addend: 0x0, symName: __ZNSt3__117__compressed_pairINS_9allocatorI4RookEES2_E17__get_second_baseB7v160006EPS4_, symObjAddr: 0x5054, symBinAddr: 0x1000075F8, symSize: 0x14 }
  - { offsetInCU: 0x123E6, offset: 0x123E6, size: 0x8, addend: 0x0, symName: __ZNSt3__118__allocation_guardINS_9allocatorINS_20__shared_ptr_emplaceI4RookNS1_IS3_EEEEEEED2B7v160006Ev, symObjAddr: 0x5068, symBinAddr: 0x10000760C, symSize: 0x58 }
  - { offsetInCU: 0x12410, offset: 0x12410, size: 0x8, addend: 0x0, symName: __ZNSt3__19allocatorI4RookEC2B7v160006Ev, symObjAddr: 0x50C0, symBinAddr: 0x100007664, symSize: 0x2C }
  - { offsetInCU: 0x1243A, offset: 0x1243A, size: 0x8, addend: 0x0, symName: __ZNSt3__116__non_trivial_ifILb1ENS_9allocatorI4RookEEEC2B7v160006Ev, symObjAddr: 0x50EC, symBinAddr: 0x100007690, symSize: 0x14 }
  - { offsetInCU: 0x12464, offset: 0x12464, size: 0x8, addend: 0x0, symName: __ZNSt3__110shared_ptrI5PieceEC1B7v160006I4RookvEEONS0_IT_EE, symObjAddr: 0x5100, symBinAddr: 0x1000076A4, symSize: 0x34 }
  - { offsetInCU: 0x124A7, offset: 0x124A7, size: 0x8, addend: 0x0, symName: __ZNSt3__110shared_ptrI5PieceEC2B7v160006I4RookvEEONS0_IT_EE, symObjAddr: 0x5134, symBinAddr: 0x1000076D8, symSize: 0x40 }
  - { offsetInCU: 0x124EA, offset: 0x124EA, size: 0x8, addend: 0x0, symName: __ZNSt3__110shared_ptrI4RookED2B7v160006Ev, symObjAddr: 0x5174, symBinAddr: 0x100007718, symSize: 0x54 }
  - { offsetInCU: 0x12514, offset: 0x12514, size: 0x8, addend: 0x0, symName: __ZNSt3__19allocatorI6KnightEC1B7v160006Ev, symObjAddr: 0x5260, symBinAddr: 0x100007804, symSize: 0x2C }
  - { offsetInCU: 0x1257A, offset: 0x1257A, size: 0x8, addend: 0x0, symName: __ZNSt3__118__allocation_guardINS_9allocatorINS_20__shared_ptr_emplaceI6KnightNS1_IS3_EEEEEEEC1B7v160006IS4_EET_m, symObjAddr: 0x528C, symBinAddr: 0x100007830, symSize: 0x34 }
  - { offsetInCU: 0x125C9, offset: 0x125C9, size: 0x8, addend: 0x0, symName: __ZNKSt3__118__allocation_guardINS_9allocatorINS_20__shared_ptr_emplaceI6KnightNS1_IS3_EEEEEEE5__getB7v160006Ev, symObjAddr: 0x52C0, symBinAddr: 0x100007864, symSize: 0x18 }
  - { offsetInCU: 0x125EF, offset: 0x125EF, size: 0x8, addend: 0x0, symName: __ZNSt3__120__shared_ptr_emplaceI6KnightNS_9allocatorIS1_EEEC1B7v160006IJ11AffiliationEEES3_DpOT_, symObjAddr: 0x52D8, symBinAddr: 0x10000787C, symSize: 0x34 }
  - { offsetInCU: 0x12642, offset: 0x12642, size: 0x8, addend: 0x0, symName: __ZNSt3__118__allocation_guardINS_9allocatorINS_20__shared_ptr_emplaceI6KnightNS1_IS3_EEEEEEE13__release_ptrB7v160006Ev, symObjAddr: 0x530C, symBinAddr: 0x1000078B0, symSize: 0x24 }
  - { offsetInCU: 0x12676, offset: 0x12676, size: 0x8, addend: 0x0, symName: __ZNSt3__110shared_ptrI6KnightE27__create_with_control_blockB7v160006IS1_NS_20__shared_ptr_emplaceIS1_NS_9allocatorIS1_EEEEEES2_PT_PT0_, symObjAddr: 0x5330, symBinAddr: 0x1000078D4, symSize: 0xC0 }
  - { offsetInCU: 0x126CB, offset: 0x126CB, size: 0x8, addend: 0x0, symName: __ZNSt3__120__shared_ptr_emplaceI6KnightNS_9allocatorIS1_EEE10__get_elemB7v160006Ev, symObjAddr: 0x53F0, symBinAddr: 0x100007994, symSize: 0x28 }
  - { offsetInCU: 0x126F1, offset: 0x126F1, size: 0x8, addend: 0x0, symName: __ZNSt3__118__allocation_guardINS_9allocatorINS_20__shared_ptr_emplaceI6KnightNS1_IS3_EEEEEEED1B7v160006Ev, symObjAddr: 0x5418, symBinAddr: 0x1000079BC, symSize: 0x2C }
  - { offsetInCU: 0x1271B, offset: 0x1271B, size: 0x8, addend: 0x0, symName: __ZNSt3__118__allocation_guardINS_9allocatorINS_20__shared_ptr_emplaceI6KnightNS1_IS3_EEEEEEEC2B7v160006IS4_EET_m, symObjAddr: 0x5444, symBinAddr: 0x1000079E8, symSize: 0x50 }
  - { offsetInCU: 0x1276A, offset: 0x1276A, size: 0x8, addend: 0x0, symName: __ZNSt3__19allocatorINS_20__shared_ptr_emplaceI6KnightNS0_IS2_EEEEEC1B7v160006IS2_EERKNS0_IT_EE, symObjAddr: 0x5494, symBinAddr: 0x100007A38, symSize: 0x34 }
  - { offsetInCU: 0x127A8, offset: 0x127A8, size: 0x8, addend: 0x0, symName: __ZNSt3__116allocator_traitsINS_9allocatorINS_20__shared_ptr_emplaceI6KnightNS1_IS3_EEEEEEE8allocateB7v160006ERS6_m, symObjAddr: 0x54C8, symBinAddr: 0x100007A6C, symSize: 0x2C }
  - { offsetInCU: 0x127DB, offset: 0x127DB, size: 0x8, addend: 0x0, symName: __ZNSt3__19allocatorINS_20__shared_ptr_emplaceI6KnightNS0_IS2_EEEEEC2B7v160006IS2_EERKNS0_IT_EE, symObjAddr: 0x54F4, symBinAddr: 0x100007A98, symSize: 0x30 }
  - { offsetInCU: 0x12819, offset: 0x12819, size: 0x8, addend: 0x0, symName: __ZNSt3__116__non_trivial_ifILb1ENS_9allocatorINS_20__shared_ptr_emplaceI6KnightNS1_IS3_EEEEEEEC2B7v160006Ev, symObjAddr: 0x5524, symBinAddr: 0x100007AC8, symSize: 0x14 }
  - { offsetInCU: 0x12843, offset: 0x12843, size: 0x8, addend: 0x0, symName: __ZNSt3__19allocatorINS_20__shared_ptr_emplaceI6KnightNS0_IS2_EEEEE8allocateB7v160006Em, symObjAddr: 0x5538, symBinAddr: 0x100007ADC, symSize: 0x8C }
  - { offsetInCU: 0x12881, offset: 0x12881, size: 0x8, addend: 0x0, symName: __ZNSt3__116allocator_traitsINS_9allocatorINS_20__shared_ptr_emplaceI6KnightNS1_IS3_EEEEEEE8max_sizeB7v160006IS6_vEEmRKS6_, symObjAddr: 0x55C4, symBinAddr: 0x100007B68, symSize: 0x24 }
  - { offsetInCU: 0x128AF, offset: 0x128AF, size: 0x8, addend: 0x0, symName: __ZNKSt3__19allocatorINS_20__shared_ptr_emplaceI6KnightNS0_IS2_EEEEE8max_sizeB7v160006Ev, symObjAddr: 0x55E8, symBinAddr: 0x100007B8C, symSize: 0x18 }
  - { offsetInCU: 0x128D5, offset: 0x128D5, size: 0x8, addend: 0x0, symName: __ZNSt3__120__shared_ptr_emplaceI6KnightNS_9allocatorIS1_EEEC2B7v160006IJ11AffiliationEEES3_DpOT_, symObjAddr: 0x5600, symBinAddr: 0x100007BA4, symSize: 0xC8 }
  - { offsetInCU: 0x12928, offset: 0x12928, size: 0x8, addend: 0x0, symName: __ZNSt3__120__shared_ptr_emplaceI6KnightNS_9allocatorIS1_EEE8_StorageC1B7v160006EOS3_, symObjAddr: 0x56C8, symBinAddr: 0x100007C6C, symSize: 0x34 }
  - { offsetInCU: 0x12961, offset: 0x12961, size: 0x8, addend: 0x0, symName: __ZN6KnightC1E11Affiliation, symObjAddr: 0x56FC, symBinAddr: 0x100007CA0, symSize: 0x34 }
  - { offsetInCU: 0x12999, offset: 0x12999, size: 0x8, addend: 0x0, symName: __ZNSt3__120__shared_ptr_emplaceI6KnightNS_9allocatorIS1_EEE8_StorageD1B7v160006Ev, symObjAddr: 0x5730, symBinAddr: 0x100007CD4, symSize: 0x2C }
  - { offsetInCU: 0x129C3, offset: 0x129C3, size: 0x8, addend: 0x0, symName: __ZNSt3__120__shared_ptr_emplaceI6KnightNS_9allocatorIS1_EEED1Ev, symObjAddr: 0x575C, symBinAddr: 0x100007D00, symSize: 0x2C }
  - { offsetInCU: 0x129F0, offset: 0x129F0, size: 0x8, addend: 0x0, symName: __ZNSt3__120__shared_ptr_emplaceI6KnightNS_9allocatorIS1_EEED0Ev, symObjAddr: 0x5788, symBinAddr: 0x100007D2C, symSize: 0x58 }
  - { offsetInCU: 0x12A1D, offset: 0x12A1D, size: 0x8, addend: 0x0, symName: __ZNSt3__120__shared_ptr_emplaceI6KnightNS_9allocatorIS1_EEE16__on_zero_sharedEv, symObjAddr: 0x57E0, symBinAddr: 0x100007D84, symSize: 0x4C }
  - { offsetInCU: 0x12A43, offset: 0x12A43, size: 0x8, addend: 0x0, symName: __ZNSt3__120__shared_ptr_emplaceI6KnightNS_9allocatorIS1_EEE21__on_zero_shared_weakEv, symObjAddr: 0x582C, symBinAddr: 0x100007DD0, symSize: 0x74 }
  - { offsetInCU: 0x12A84, offset: 0x12A84, size: 0x8, addend: 0x0, symName: __ZNSt3__120__shared_ptr_emplaceI6KnightNS_9allocatorIS1_EEE8_StorageC2B7v160006EOS3_, symObjAddr: 0x58A0, symBinAddr: 0x100007E44, symSize: 0x30 }
  - { offsetInCU: 0x12ABD, offset: 0x12ABD, size: 0x8, addend: 0x0, symName: __ZNSt3__120__shared_ptr_emplaceI6KnightNS_9allocatorIS1_EEE8_Storage11__get_allocEv, symObjAddr: 0x58D0, symBinAddr: 0x100007E74, symSize: 0x3C }
  - { offsetInCU: 0x12B10, offset: 0x12B10, size: 0x8, addend: 0x0, symName: __ZNSt3__117__compressed_pairINS_9allocatorI6KnightEES2_E16__get_first_baseB7v160006EPS4_, symObjAddr: 0x590C, symBinAddr: 0x100007EB0, symSize: 0x14 }
  - { offsetInCU: 0x12B33, offset: 0x12B33, size: 0x8, addend: 0x0, symName: __ZN6KnightC2E11Affiliation, symObjAddr: 0x5920, symBinAddr: 0x100007EC4, symSize: 0x4C }
  - { offsetInCU: 0x12B6B, offset: 0x12B6B, size: 0x8, addend: 0x0, symName: __ZN6KnightD1Ev, symObjAddr: 0x596C, symBinAddr: 0x100007F10, symSize: 0x2C }
  - { offsetInCU: 0x12B97, offset: 0x12B97, size: 0x8, addend: 0x0, symName: __ZN6KnightD0Ev, symObjAddr: 0x5998, symBinAddr: 0x100007F3C, symSize: 0x58 }
  - { offsetInCU: 0x12BC3, offset: 0x12BC3, size: 0x8, addend: 0x0, symName: __ZNK6Knight9getSymbolEv, symObjAddr: 0x59F0, symBinAddr: 0x100007F94, symSize: 0x38 }
  - { offsetInCU: 0x12BE9, offset: 0x12BE9, size: 0x8, addend: 0x0, symName: __ZN6KnightD2Ev, symObjAddr: 0x5A28, symBinAddr: 0x100007FCC, symSize: 0x2C }
  - { offsetInCU: 0x12C15, offset: 0x12C15, size: 0x8, addend: 0x0, symName: __ZNSt3__120__shared_ptr_emplaceI6KnightNS_9allocatorIS1_EEE8_StorageD2B7v160006Ev, symObjAddr: 0x5A54, symBinAddr: 0x100007FF8, symSize: 0x2C }
  - { offsetInCU: 0x12C3F, offset: 0x12C3F, size: 0x8, addend: 0x0, symName: __ZNSt3__120__shared_ptr_emplaceI6KnightNS_9allocatorIS1_EEED2Ev, symObjAddr: 0x5A80, symBinAddr: 0x100008024, symSize: 0x78 }
  - { offsetInCU: 0x12C6C, offset: 0x12C6C, size: 0x8, addend: 0x0, symName: __ZNSt3__120__shared_ptr_emplaceI6KnightNS_9allocatorIS1_EEE11__get_allocB7v160006Ev, symObjAddr: 0x5AF8, symBinAddr: 0x10000809C, symSize: 0x28 }
  - { offsetInCU: 0x12C92, offset: 0x12C92, size: 0x8, addend: 0x0, symName: __ZNSt3__116allocator_traitsINS_9allocatorINS_20__shared_ptr_emplaceI6KnightNS1_IS3_EEEEEEE10deallocateB7v160006ERS6_PS5_m, symObjAddr: 0x5B20, symBinAddr: 0x1000080C4, symSize: 0x34 }
  - { offsetInCU: 0x12CD4, offset: 0x12CD4, size: 0x8, addend: 0x0, symName: __ZNSt3__114pointer_traitsIPNS_20__shared_ptr_emplaceI6KnightNS_9allocatorIS2_EEEEE10pointer_toB7v160006ERS5_, symObjAddr: 0x5B54, symBinAddr: 0x1000080F8, symSize: 0x14 }
  - { offsetInCU: 0x12CF7, offset: 0x12CF7, size: 0x8, addend: 0x0, symName: __ZNSt3__19allocatorINS_20__shared_ptr_emplaceI6KnightNS0_IS2_EEEEE10deallocateB7v160006EPS4_m, symObjAddr: 0x5B68, symBinAddr: 0x10000810C, symSize: 0x74 }
  - { offsetInCU: 0x12D39, offset: 0x12D39, size: 0x8, addend: 0x0, symName: __ZNSt3__110shared_ptrI6KnightEC1B7v160006Ev, symObjAddr: 0x5BDC, symBinAddr: 0x100008180, symSize: 0x2C }
  - { offsetInCU: 0x12D63, offset: 0x12D63, size: 0x8, addend: 0x0, symName: __ZNSt3__110shared_ptrI6KnightE18__enable_weak_thisB7v160006Ez, symObjAddr: 0x5C08, symBinAddr: 0x1000081AC, symSize: 0x10 }
  - { offsetInCU: 0x12D8A, offset: 0x12D8A, size: 0x8, addend: 0x0, symName: __ZNSt3__110shared_ptrI6KnightEC2B7v160006Ev, symObjAddr: 0x5C18, symBinAddr: 0x1000081BC, symSize: 0x1C }
  - { offsetInCU: 0x12DB4, offset: 0x12DB4, size: 0x8, addend: 0x0, symName: __ZNSt3__120__shared_ptr_emplaceI6KnightNS_9allocatorIS1_EEE8_Storage10__get_elemEv, symObjAddr: 0x5C34, symBinAddr: 0x1000081D8, symSize: 0x3C }
  - { offsetInCU: 0x12E07, offset: 0x12E07, size: 0x8, addend: 0x0, symName: __ZNSt3__117__compressed_pairINS_9allocatorI6KnightEES2_E17__get_second_baseB7v160006EPS4_, symObjAddr: 0x5C70, symBinAddr: 0x100008214, symSize: 0x14 }
  - { offsetInCU: 0x12E2A, offset: 0x12E2A, size: 0x8, addend: 0x0, symName: __ZNSt3__118__allocation_guardINS_9allocatorINS_20__shared_ptr_emplaceI6KnightNS1_IS3_EEEEEEED2B7v160006Ev, symObjAddr: 0x5C84, symBinAddr: 0x100008228, symSize: 0x58 }
  - { offsetInCU: 0x12E54, offset: 0x12E54, size: 0x8, addend: 0x0, symName: __ZNSt3__19allocatorI6KnightEC2B7v160006Ev, symObjAddr: 0x5CDC, symBinAddr: 0x100008280, symSize: 0x2C }
  - { offsetInCU: 0x12E7E, offset: 0x12E7E, size: 0x8, addend: 0x0, symName: __ZNSt3__116__non_trivial_ifILb1ENS_9allocatorI6KnightEEEC2B7v160006Ev, symObjAddr: 0x5D08, symBinAddr: 0x1000082AC, symSize: 0x14 }
  - { offsetInCU: 0x12EA8, offset: 0x12EA8, size: 0x8, addend: 0x0, symName: __ZNSt3__110shared_ptrI5PieceEC1B7v160006I6KnightvEEONS0_IT_EE, symObjAddr: 0x5D1C, symBinAddr: 0x1000082C0, symSize: 0x34 }
  - { offsetInCU: 0x12EEB, offset: 0x12EEB, size: 0x8, addend: 0x0, symName: __ZNSt3__110shared_ptrI5PieceEC2B7v160006I6KnightvEEONS0_IT_EE, symObjAddr: 0x5D50, symBinAddr: 0x1000082F4, symSize: 0x40 }
  - { offsetInCU: 0x12F2E, offset: 0x12F2E, size: 0x8, addend: 0x0, symName: __ZNSt3__110shared_ptrI6KnightED2B7v160006Ev, symObjAddr: 0x5D90, symBinAddr: 0x100008334, symSize: 0x54 }
  - { offsetInCU: 0x12F58, offset: 0x12F58, size: 0x8, addend: 0x0, symName: __ZNSt3__19allocatorI6BishopEC1B7v160006Ev, symObjAddr: 0x5E7C, symBinAddr: 0x100008420, symSize: 0x2C }
  - { offsetInCU: 0x12FBE, offset: 0x12FBE, size: 0x8, addend: 0x0, symName: __ZNSt3__118__allocation_guardINS_9allocatorINS_20__shared_ptr_emplaceI6BishopNS1_IS3_EEEEEEEC1B7v160006IS4_EET_m, symObjAddr: 0x5EA8, symBinAddr: 0x10000844C, symSize: 0x34 }
  - { offsetInCU: 0x1300D, offset: 0x1300D, size: 0x8, addend: 0x0, symName: __ZNKSt3__118__allocation_guardINS_9allocatorINS_20__shared_ptr_emplaceI6BishopNS1_IS3_EEEEEEE5__getB7v160006Ev, symObjAddr: 0x5EDC, symBinAddr: 0x100008480, symSize: 0x18 }
  - { offsetInCU: 0x13033, offset: 0x13033, size: 0x8, addend: 0x0, symName: __ZNSt3__120__shared_ptr_emplaceI6BishopNS_9allocatorIS1_EEEC1B7v160006IJ11AffiliationEEES3_DpOT_, symObjAddr: 0x5EF4, symBinAddr: 0x100008498, symSize: 0x34 }
  - { offsetInCU: 0x13086, offset: 0x13086, size: 0x8, addend: 0x0, symName: __ZNSt3__118__allocation_guardINS_9allocatorINS_20__shared_ptr_emplaceI6BishopNS1_IS3_EEEEEEE13__release_ptrB7v160006Ev, symObjAddr: 0x5F28, symBinAddr: 0x1000084CC, symSize: 0x24 }
  - { offsetInCU: 0x130BA, offset: 0x130BA, size: 0x8, addend: 0x0, symName: __ZNSt3__110shared_ptrI6BishopE27__create_with_control_blockB7v160006IS1_NS_20__shared_ptr_emplaceIS1_NS_9allocatorIS1_EEEEEES2_PT_PT0_, symObjAddr: 0x5F4C, symBinAddr: 0x1000084F0, symSize: 0xC0 }
  - { offsetInCU: 0x1310F, offset: 0x1310F, size: 0x8, addend: 0x0, symName: __ZNSt3__120__shared_ptr_emplaceI6BishopNS_9allocatorIS1_EEE10__get_elemB7v160006Ev, symObjAddr: 0x600C, symBinAddr: 0x1000085B0, symSize: 0x28 }
  - { offsetInCU: 0x13135, offset: 0x13135, size: 0x8, addend: 0x0, symName: __ZNSt3__118__allocation_guardINS_9allocatorINS_20__shared_ptr_emplaceI6BishopNS1_IS3_EEEEEEED1B7v160006Ev, symObjAddr: 0x6034, symBinAddr: 0x1000085D8, symSize: 0x2C }
  - { offsetInCU: 0x1315F, offset: 0x1315F, size: 0x8, addend: 0x0, symName: __ZNSt3__118__allocation_guardINS_9allocatorINS_20__shared_ptr_emplaceI6BishopNS1_IS3_EEEEEEEC2B7v160006IS4_EET_m, symObjAddr: 0x6060, symBinAddr: 0x100008604, symSize: 0x50 }
  - { offsetInCU: 0x131AE, offset: 0x131AE, size: 0x8, addend: 0x0, symName: __ZNSt3__19allocatorINS_20__shared_ptr_emplaceI6BishopNS0_IS2_EEEEEC1B7v160006IS2_EERKNS0_IT_EE, symObjAddr: 0x60B0, symBinAddr: 0x100008654, symSize: 0x34 }
  - { offsetInCU: 0x131EC, offset: 0x131EC, size: 0x8, addend: 0x0, symName: __ZNSt3__116allocator_traitsINS_9allocatorINS_20__shared_ptr_emplaceI6BishopNS1_IS3_EEEEEEE8allocateB7v160006ERS6_m, symObjAddr: 0x60E4, symBinAddr: 0x100008688, symSize: 0x2C }
  - { offsetInCU: 0x1321F, offset: 0x1321F, size: 0x8, addend: 0x0, symName: __ZNSt3__19allocatorINS_20__shared_ptr_emplaceI6BishopNS0_IS2_EEEEEC2B7v160006IS2_EERKNS0_IT_EE, symObjAddr: 0x6110, symBinAddr: 0x1000086B4, symSize: 0x30 }
  - { offsetInCU: 0x1325D, offset: 0x1325D, size: 0x8, addend: 0x0, symName: __ZNSt3__116__non_trivial_ifILb1ENS_9allocatorINS_20__shared_ptr_emplaceI6BishopNS1_IS3_EEEEEEEC2B7v160006Ev, symObjAddr: 0x6140, symBinAddr: 0x1000086E4, symSize: 0x14 }
  - { offsetInCU: 0x13287, offset: 0x13287, size: 0x8, addend: 0x0, symName: __ZNSt3__19allocatorINS_20__shared_ptr_emplaceI6BishopNS0_IS2_EEEEE8allocateB7v160006Em, symObjAddr: 0x6154, symBinAddr: 0x1000086F8, symSize: 0x8C }
  - { offsetInCU: 0x132C5, offset: 0x132C5, size: 0x8, addend: 0x0, symName: __ZNSt3__116allocator_traitsINS_9allocatorINS_20__shared_ptr_emplaceI6BishopNS1_IS3_EEEEEEE8max_sizeB7v160006IS6_vEEmRKS6_, symObjAddr: 0x61E0, symBinAddr: 0x100008784, symSize: 0x24 }
  - { offsetInCU: 0x132F3, offset: 0x132F3, size: 0x8, addend: 0x0, symName: __ZNKSt3__19allocatorINS_20__shared_ptr_emplaceI6BishopNS0_IS2_EEEEE8max_sizeB7v160006Ev, symObjAddr: 0x6204, symBinAddr: 0x1000087A8, symSize: 0x18 }
  - { offsetInCU: 0x13319, offset: 0x13319, size: 0x8, addend: 0x0, symName: __ZNSt3__120__shared_ptr_emplaceI6BishopNS_9allocatorIS1_EEEC2B7v160006IJ11AffiliationEEES3_DpOT_, symObjAddr: 0x621C, symBinAddr: 0x1000087C0, symSize: 0xC8 }
  - { offsetInCU: 0x1336C, offset: 0x1336C, size: 0x8, addend: 0x0, symName: __ZNSt3__120__shared_ptr_emplaceI6BishopNS_9allocatorIS1_EEE8_StorageC1B7v160006EOS3_, symObjAddr: 0x62E4, symBinAddr: 0x100008888, symSize: 0x34 }
  - { offsetInCU: 0x133A5, offset: 0x133A5, size: 0x8, addend: 0x0, symName: __ZN6BishopC1E11Affiliation, symObjAddr: 0x6318, symBinAddr: 0x1000088BC, symSize: 0x34 }
  - { offsetInCU: 0x133DD, offset: 0x133DD, size: 0x8, addend: 0x0, symName: __ZNSt3__120__shared_ptr_emplaceI6BishopNS_9allocatorIS1_EEE8_StorageD1B7v160006Ev, symObjAddr: 0x634C, symBinAddr: 0x1000088F0, symSize: 0x2C }
  - { offsetInCU: 0x13407, offset: 0x13407, size: 0x8, addend: 0x0, symName: __ZNSt3__120__shared_ptr_emplaceI6BishopNS_9allocatorIS1_EEED1Ev, symObjAddr: 0x6378, symBinAddr: 0x10000891C, symSize: 0x2C }
  - { offsetInCU: 0x13434, offset: 0x13434, size: 0x8, addend: 0x0, symName: __ZNSt3__120__shared_ptr_emplaceI6BishopNS_9allocatorIS1_EEED0Ev, symObjAddr: 0x63A4, symBinAddr: 0x100008948, symSize: 0x58 }
  - { offsetInCU: 0x13461, offset: 0x13461, size: 0x8, addend: 0x0, symName: __ZNSt3__120__shared_ptr_emplaceI6BishopNS_9allocatorIS1_EEE16__on_zero_sharedEv, symObjAddr: 0x63FC, symBinAddr: 0x1000089A0, symSize: 0x4C }
  - { offsetInCU: 0x13487, offset: 0x13487, size: 0x8, addend: 0x0, symName: __ZNSt3__120__shared_ptr_emplaceI6BishopNS_9allocatorIS1_EEE21__on_zero_shared_weakEv, symObjAddr: 0x6448, symBinAddr: 0x1000089EC, symSize: 0x74 }
  - { offsetInCU: 0x134C8, offset: 0x134C8, size: 0x8, addend: 0x0, symName: __ZNSt3__120__shared_ptr_emplaceI6BishopNS_9allocatorIS1_EEE8_StorageC2B7v160006EOS3_, symObjAddr: 0x64BC, symBinAddr: 0x100008A60, symSize: 0x30 }
  - { offsetInCU: 0x13501, offset: 0x13501, size: 0x8, addend: 0x0, symName: __ZNSt3__120__shared_ptr_emplaceI6BishopNS_9allocatorIS1_EEE8_Storage11__get_allocEv, symObjAddr: 0x64EC, symBinAddr: 0x100008A90, symSize: 0x3C }
  - { offsetInCU: 0x13554, offset: 0x13554, size: 0x8, addend: 0x0, symName: __ZNSt3__117__compressed_pairINS_9allocatorI6BishopEES2_E16__get_first_baseB7v160006EPS4_, symObjAddr: 0x6528, symBinAddr: 0x100008ACC, symSize: 0x14 }
  - { offsetInCU: 0x13577, offset: 0x13577, size: 0x8, addend: 0x0, symName: __ZN6BishopC2E11Affiliation, symObjAddr: 0x653C, symBinAddr: 0x100008AE0, symSize: 0x4C }
  - { offsetInCU: 0x135AF, offset: 0x135AF, size: 0x8, addend: 0x0, symName: __ZN6BishopD1Ev, symObjAddr: 0x6588, symBinAddr: 0x100008B2C, symSize: 0x2C }
  - { offsetInCU: 0x135DB, offset: 0x135DB, size: 0x8, addend: 0x0, symName: __ZN6BishopD0Ev, symObjAddr: 0x65B4, symBinAddr: 0x100008B58, symSize: 0x58 }
  - { offsetInCU: 0x13607, offset: 0x13607, size: 0x8, addend: 0x0, symName: __ZNK6Bishop9getSymbolEv, symObjAddr: 0x660C, symBinAddr: 0x100008BB0, symSize: 0x38 }
  - { offsetInCU: 0x1362D, offset: 0x1362D, size: 0x8, addend: 0x0, symName: __ZN6BishopD2Ev, symObjAddr: 0x6644, symBinAddr: 0x100008BE8, symSize: 0x2C }
  - { offsetInCU: 0x13659, offset: 0x13659, size: 0x8, addend: 0x0, symName: __ZNSt3__120__shared_ptr_emplaceI6BishopNS_9allocatorIS1_EEE8_StorageD2B7v160006Ev, symObjAddr: 0x6670, symBinAddr: 0x100008C14, symSize: 0x2C }
  - { offsetInCU: 0x13683, offset: 0x13683, size: 0x8, addend: 0x0, symName: __ZNSt3__120__shared_ptr_emplaceI6BishopNS_9allocatorIS1_EEED2Ev, symObjAddr: 0x669C, symBinAddr: 0x100008C40, symSize: 0x78 }
  - { offsetInCU: 0x136B0, offset: 0x136B0, size: 0x8, addend: 0x0, symName: __ZNSt3__120__shared_ptr_emplaceI6BishopNS_9allocatorIS1_EEE11__get_allocB7v160006Ev, symObjAddr: 0x6714, symBinAddr: 0x100008CB8, symSize: 0x28 }
  - { offsetInCU: 0x136D6, offset: 0x136D6, size: 0x8, addend: 0x0, symName: __ZNSt3__116allocator_traitsINS_9allocatorINS_20__shared_ptr_emplaceI6BishopNS1_IS3_EEEEEEE10deallocateB7v160006ERS6_PS5_m, symObjAddr: 0x673C, symBinAddr: 0x100008CE0, symSize: 0x34 }
  - { offsetInCU: 0x13718, offset: 0x13718, size: 0x8, addend: 0x0, symName: __ZNSt3__114pointer_traitsIPNS_20__shared_ptr_emplaceI6BishopNS_9allocatorIS2_EEEEE10pointer_toB7v160006ERS5_, symObjAddr: 0x6770, symBinAddr: 0x100008D14, symSize: 0x14 }
  - { offsetInCU: 0x1373B, offset: 0x1373B, size: 0x8, addend: 0x0, symName: __ZNSt3__19allocatorINS_20__shared_ptr_emplaceI6BishopNS0_IS2_EEEEE10deallocateB7v160006EPS4_m, symObjAddr: 0x6784, symBinAddr: 0x100008D28, symSize: 0x74 }
  - { offsetInCU: 0x1377D, offset: 0x1377D, size: 0x8, addend: 0x0, symName: __ZNSt3__110shared_ptrI6BishopEC1B7v160006Ev, symObjAddr: 0x67F8, symBinAddr: 0x100008D9C, symSize: 0x2C }
  - { offsetInCU: 0x137A7, offset: 0x137A7, size: 0x8, addend: 0x0, symName: __ZNSt3__110shared_ptrI6BishopE18__enable_weak_thisB7v160006Ez, symObjAddr: 0x6824, symBinAddr: 0x100008DC8, symSize: 0x10 }
  - { offsetInCU: 0x137CE, offset: 0x137CE, size: 0x8, addend: 0x0, symName: __ZNSt3__110shared_ptrI6BishopEC2B7v160006Ev, symObjAddr: 0x6834, symBinAddr: 0x100008DD8, symSize: 0x1C }
  - { offsetInCU: 0x137F8, offset: 0x137F8, size: 0x8, addend: 0x0, symName: __ZNSt3__120__shared_ptr_emplaceI6BishopNS_9allocatorIS1_EEE8_Storage10__get_elemEv, symObjAddr: 0x6850, symBinAddr: 0x100008DF4, symSize: 0x3C }
  - { offsetInCU: 0x1384B, offset: 0x1384B, size: 0x8, addend: 0x0, symName: __ZNSt3__117__compressed_pairINS_9allocatorI6BishopEES2_E17__get_second_baseB7v160006EPS4_, symObjAddr: 0x688C, symBinAddr: 0x100008E30, symSize: 0x14 }
  - { offsetInCU: 0x1386E, offset: 0x1386E, size: 0x8, addend: 0x0, symName: __ZNSt3__118__allocation_guardINS_9allocatorINS_20__shared_ptr_emplaceI6BishopNS1_IS3_EEEEEEED2B7v160006Ev, symObjAddr: 0x68A0, symBinAddr: 0x100008E44, symSize: 0x58 }
  - { offsetInCU: 0x13898, offset: 0x13898, size: 0x8, addend: 0x0, symName: __ZNSt3__19allocatorI6BishopEC2B7v160006Ev, symObjAddr: 0x68F8, symBinAddr: 0x100008E9C, symSize: 0x2C }
  - { offsetInCU: 0x138C2, offset: 0x138C2, size: 0x8, addend: 0x0, symName: __ZNSt3__116__non_trivial_ifILb1ENS_9allocatorI6BishopEEEC2B7v160006Ev, symObjAddr: 0x6924, symBinAddr: 0x100008EC8, symSize: 0x14 }
  - { offsetInCU: 0x138EC, offset: 0x138EC, size: 0x8, addend: 0x0, symName: __ZNSt3__110shared_ptrI5PieceEC1B7v160006I6BishopvEEONS0_IT_EE, symObjAddr: 0x6938, symBinAddr: 0x100008EDC, symSize: 0x34 }
  - { offsetInCU: 0x1392F, offset: 0x1392F, size: 0x8, addend: 0x0, symName: __ZNSt3__110shared_ptrI5PieceEC2B7v160006I6BishopvEEONS0_IT_EE, symObjAddr: 0x696C, symBinAddr: 0x100008F10, symSize: 0x40 }
  - { offsetInCU: 0x13972, offset: 0x13972, size: 0x8, addend: 0x0, symName: __ZNSt3__110shared_ptrI6BishopED2B7v160006Ev, symObjAddr: 0x69AC, symBinAddr: 0x100008F50, symSize: 0x54 }
  - { offsetInCU: 0x1399C, offset: 0x1399C, size: 0x8, addend: 0x0, symName: __ZNSt3__19allocatorI4KingEC1B7v160006Ev, symObjAddr: 0x6A98, symBinAddr: 0x10000903C, symSize: 0x2C }
  - { offsetInCU: 0x13A02, offset: 0x13A02, size: 0x8, addend: 0x0, symName: __ZNSt3__118__allocation_guardINS_9allocatorINS_20__shared_ptr_emplaceI4KingNS1_IS3_EEEEEEEC1B7v160006IS4_EET_m, symObjAddr: 0x6AC4, symBinAddr: 0x100009068, symSize: 0x34 }
  - { offsetInCU: 0x13A51, offset: 0x13A51, size: 0x8, addend: 0x0, symName: __ZNKSt3__118__allocation_guardINS_9allocatorINS_20__shared_ptr_emplaceI4KingNS1_IS3_EEEEEEE5__getB7v160006Ev, symObjAddr: 0x6AF8, symBinAddr: 0x10000909C, symSize: 0x18 }
  - { offsetInCU: 0x13A77, offset: 0x13A77, size: 0x8, addend: 0x0, symName: __ZNSt3__120__shared_ptr_emplaceI4KingNS_9allocatorIS1_EEEC1B7v160006IJ11AffiliationEEES3_DpOT_, symObjAddr: 0x6B10, symBinAddr: 0x1000090B4, symSize: 0x34 }
  - { offsetInCU: 0x13ACA, offset: 0x13ACA, size: 0x8, addend: 0x0, symName: __ZNSt3__118__allocation_guardINS_9allocatorINS_20__shared_ptr_emplaceI4KingNS1_IS3_EEEEEEE13__release_ptrB7v160006Ev, symObjAddr: 0x6B44, symBinAddr: 0x1000090E8, symSize: 0x24 }
  - { offsetInCU: 0x13AFE, offset: 0x13AFE, size: 0x8, addend: 0x0, symName: __ZNSt3__110shared_ptrI4KingE27__create_with_control_blockB7v160006IS1_NS_20__shared_ptr_emplaceIS1_NS_9allocatorIS1_EEEEEES2_PT_PT0_, symObjAddr: 0x6B68, symBinAddr: 0x10000910C, symSize: 0xC0 }
  - { offsetInCU: 0x13B53, offset: 0x13B53, size: 0x8, addend: 0x0, symName: __ZNSt3__120__shared_ptr_emplaceI4KingNS_9allocatorIS1_EEE10__get_elemB7v160006Ev, symObjAddr: 0x6C28, symBinAddr: 0x1000091CC, symSize: 0x28 }
  - { offsetInCU: 0x13B79, offset: 0x13B79, size: 0x8, addend: 0x0, symName: __ZNSt3__118__allocation_guardINS_9allocatorINS_20__shared_ptr_emplaceI4KingNS1_IS3_EEEEEEED1B7v160006Ev, symObjAddr: 0x6C50, symBinAddr: 0x1000091F4, symSize: 0x2C }
  - { offsetInCU: 0x13BA3, offset: 0x13BA3, size: 0x8, addend: 0x0, symName: __ZNSt3__118__allocation_guardINS_9allocatorINS_20__shared_ptr_emplaceI4KingNS1_IS3_EEEEEEEC2B7v160006IS4_EET_m, symObjAddr: 0x6C7C, symBinAddr: 0x100009220, symSize: 0x50 }
  - { offsetInCU: 0x13BF2, offset: 0x13BF2, size: 0x8, addend: 0x0, symName: __ZNSt3__19allocatorINS_20__shared_ptr_emplaceI4KingNS0_IS2_EEEEEC1B7v160006IS2_EERKNS0_IT_EE, symObjAddr: 0x6CCC, symBinAddr: 0x100009270, symSize: 0x34 }
  - { offsetInCU: 0x13C30, offset: 0x13C30, size: 0x8, addend: 0x0, symName: __ZNSt3__116allocator_traitsINS_9allocatorINS_20__shared_ptr_emplaceI4KingNS1_IS3_EEEEEEE8allocateB7v160006ERS6_m, symObjAddr: 0x6D00, symBinAddr: 0x1000092A4, symSize: 0x2C }
  - { offsetInCU: 0x13C63, offset: 0x13C63, size: 0x8, addend: 0x0, symName: __ZNSt3__19allocatorINS_20__shared_ptr_emplaceI4KingNS0_IS2_EEEEEC2B7v160006IS2_EERKNS0_IT_EE, symObjAddr: 0x6D2C, symBinAddr: 0x1000092D0, symSize: 0x30 }
  - { offsetInCU: 0x13CA1, offset: 0x13CA1, size: 0x8, addend: 0x0, symName: __ZNSt3__116__non_trivial_ifILb1ENS_9allocatorINS_20__shared_ptr_emplaceI4KingNS1_IS3_EEEEEEEC2B7v160006Ev, symObjAddr: 0x6D5C, symBinAddr: 0x100009300, symSize: 0x14 }
  - { offsetInCU: 0x13CCB, offset: 0x13CCB, size: 0x8, addend: 0x0, symName: __ZNSt3__19allocatorINS_20__shared_ptr_emplaceI4KingNS0_IS2_EEEEE8allocateB7v160006Em, symObjAddr: 0x6D70, symBinAddr: 0x100009314, symSize: 0x8C }
  - { offsetInCU: 0x13D09, offset: 0x13D09, size: 0x8, addend: 0x0, symName: __ZNSt3__116allocator_traitsINS_9allocatorINS_20__shared_ptr_emplaceI4KingNS1_IS3_EEEEEEE8max_sizeB7v160006IS6_vEEmRKS6_, symObjAddr: 0x6DFC, symBinAddr: 0x1000093A0, symSize: 0x24 }
  - { offsetInCU: 0x13D37, offset: 0x13D37, size: 0x8, addend: 0x0, symName: __ZNKSt3__19allocatorINS_20__shared_ptr_emplaceI4KingNS0_IS2_EEEEE8max_sizeB7v160006Ev, symObjAddr: 0x6E20, symBinAddr: 0x1000093C4, symSize: 0x18 }
  - { offsetInCU: 0x13D5D, offset: 0x13D5D, size: 0x8, addend: 0x0, symName: __ZNSt3__120__shared_ptr_emplaceI4KingNS_9allocatorIS1_EEEC2B7v160006IJ11AffiliationEEES3_DpOT_, symObjAddr: 0x6E38, symBinAddr: 0x1000093DC, symSize: 0xC8 }
  - { offsetInCU: 0x13DB0, offset: 0x13DB0, size: 0x8, addend: 0x0, symName: __ZNSt3__120__shared_ptr_emplaceI4KingNS_9allocatorIS1_EEE8_StorageC1B7v160006EOS3_, symObjAddr: 0x6F00, symBinAddr: 0x1000094A4, symSize: 0x34 }
  - { offsetInCU: 0x13DE9, offset: 0x13DE9, size: 0x8, addend: 0x0, symName: __ZN4KingC1E11Affiliation, symObjAddr: 0x6F34, symBinAddr: 0x1000094D8, symSize: 0x34 }
  - { offsetInCU: 0x13E21, offset: 0x13E21, size: 0x8, addend: 0x0, symName: __ZNSt3__120__shared_ptr_emplaceI4KingNS_9allocatorIS1_EEE8_StorageD1B7v160006Ev, symObjAddr: 0x6F68, symBinAddr: 0x10000950C, symSize: 0x2C }
  - { offsetInCU: 0x13E4B, offset: 0x13E4B, size: 0x8, addend: 0x0, symName: __ZNSt3__120__shared_ptr_emplaceI4KingNS_9allocatorIS1_EEED1Ev, symObjAddr: 0x6F94, symBinAddr: 0x100009538, symSize: 0x2C }
  - { offsetInCU: 0x13E78, offset: 0x13E78, size: 0x8, addend: 0x0, symName: __ZNSt3__120__shared_ptr_emplaceI4KingNS_9allocatorIS1_EEED0Ev, symObjAddr: 0x6FC0, symBinAddr: 0x100009564, symSize: 0x58 }
  - { offsetInCU: 0x13EA5, offset: 0x13EA5, size: 0x8, addend: 0x0, symName: __ZNSt3__120__shared_ptr_emplaceI4KingNS_9allocatorIS1_EEE16__on_zero_sharedEv, symObjAddr: 0x7018, symBinAddr: 0x1000095BC, symSize: 0x4C }
  - { offsetInCU: 0x13ECB, offset: 0x13ECB, size: 0x8, addend: 0x0, symName: __ZNSt3__120__shared_ptr_emplaceI4KingNS_9allocatorIS1_EEE21__on_zero_shared_weakEv, symObjAddr: 0x7064, symBinAddr: 0x100009608, symSize: 0x74 }
  - { offsetInCU: 0x13F0C, offset: 0x13F0C, size: 0x8, addend: 0x0, symName: __ZNSt3__120__shared_ptr_emplaceI4KingNS_9allocatorIS1_EEE8_StorageC2B7v160006EOS3_, symObjAddr: 0x70D8, symBinAddr: 0x10000967C, symSize: 0x30 }
  - { offsetInCU: 0x13F45, offset: 0x13F45, size: 0x8, addend: 0x0, symName: __ZNSt3__120__shared_ptr_emplaceI4KingNS_9allocatorIS1_EEE8_Storage11__get_allocEv, symObjAddr: 0x7108, symBinAddr: 0x1000096AC, symSize: 0x3C }
  - { offsetInCU: 0x13F98, offset: 0x13F98, size: 0x8, addend: 0x0, symName: __ZNSt3__117__compressed_pairINS_9allocatorI4KingEES2_E16__get_first_baseB7v160006EPS4_, symObjAddr: 0x7144, symBinAddr: 0x1000096E8, symSize: 0x14 }
  - { offsetInCU: 0x13FBB, offset: 0x13FBB, size: 0x8, addend: 0x0, symName: __ZN4KingC2E11Affiliation, symObjAddr: 0x7158, symBinAddr: 0x1000096FC, symSize: 0x4C }
  - { offsetInCU: 0x13FF3, offset: 0x13FF3, size: 0x8, addend: 0x0, symName: __ZN4KingD1Ev, symObjAddr: 0x71A4, symBinAddr: 0x100009748, symSize: 0x2C }
  - { offsetInCU: 0x1401F, offset: 0x1401F, size: 0x8, addend: 0x0, symName: __ZN4KingD0Ev, symObjAddr: 0x71D0, symBinAddr: 0x100009774, symSize: 0x58 }
  - { offsetInCU: 0x1404B, offset: 0x1404B, size: 0x8, addend: 0x0, symName: __ZNK4King9getSymbolEv, symObjAddr: 0x7228, symBinAddr: 0x1000097CC, symSize: 0x38 }
  - { offsetInCU: 0x14071, offset: 0x14071, size: 0x8, addend: 0x0, symName: __ZN4KingD2Ev, symObjAddr: 0x7260, symBinAddr: 0x100009804, symSize: 0x2C }
  - { offsetInCU: 0x1409D, offset: 0x1409D, size: 0x8, addend: 0x0, symName: __ZNSt3__120__shared_ptr_emplaceI4KingNS_9allocatorIS1_EEE8_StorageD2B7v160006Ev, symObjAddr: 0x728C, symBinAddr: 0x100009830, symSize: 0x2C }
  - { offsetInCU: 0x140C7, offset: 0x140C7, size: 0x8, addend: 0x0, symName: __ZNSt3__120__shared_ptr_emplaceI4KingNS_9allocatorIS1_EEED2Ev, symObjAddr: 0x72B8, symBinAddr: 0x10000985C, symSize: 0x78 }
  - { offsetInCU: 0x140F4, offset: 0x140F4, size: 0x8, addend: 0x0, symName: __ZNSt3__120__shared_ptr_emplaceI4KingNS_9allocatorIS1_EEE11__get_allocB7v160006Ev, symObjAddr: 0x7330, symBinAddr: 0x1000098D4, symSize: 0x28 }
  - { offsetInCU: 0x1411A, offset: 0x1411A, size: 0x8, addend: 0x0, symName: __ZNSt3__116allocator_traitsINS_9allocatorINS_20__shared_ptr_emplaceI4KingNS1_IS3_EEEEEEE10deallocateB7v160006ERS6_PS5_m, symObjAddr: 0x7358, symBinAddr: 0x1000098FC, symSize: 0x34 }
  - { offsetInCU: 0x1415C, offset: 0x1415C, size: 0x8, addend: 0x0, symName: __ZNSt3__114pointer_traitsIPNS_20__shared_ptr_emplaceI4KingNS_9allocatorIS2_EEEEE10pointer_toB7v160006ERS5_, symObjAddr: 0x738C, symBinAddr: 0x100009930, symSize: 0x14 }
  - { offsetInCU: 0x1417F, offset: 0x1417F, size: 0x8, addend: 0x0, symName: __ZNSt3__19allocatorINS_20__shared_ptr_emplaceI4KingNS0_IS2_EEEEE10deallocateB7v160006EPS4_m, symObjAddr: 0x73A0, symBinAddr: 0x100009944, symSize: 0x74 }
  - { offsetInCU: 0x141C1, offset: 0x141C1, size: 0x8, addend: 0x0, symName: __ZNSt3__110shared_ptrI4KingEC1B7v160006Ev, symObjAddr: 0x7414, symBinAddr: 0x1000099B8, symSize: 0x2C }
  - { offsetInCU: 0x141EB, offset: 0x141EB, size: 0x8, addend: 0x0, symName: __ZNSt3__110shared_ptrI4KingE18__enable_weak_thisB7v160006Ez, symObjAddr: 0x7440, symBinAddr: 0x1000099E4, symSize: 0x10 }
  - { offsetInCU: 0x14212, offset: 0x14212, size: 0x8, addend: 0x0, symName: __ZNSt3__110shared_ptrI4KingEC2B7v160006Ev, symObjAddr: 0x7450, symBinAddr: 0x1000099F4, symSize: 0x1C }
  - { offsetInCU: 0x1423C, offset: 0x1423C, size: 0x8, addend: 0x0, symName: __ZNSt3__120__shared_ptr_emplaceI4KingNS_9allocatorIS1_EEE8_Storage10__get_elemEv, symObjAddr: 0x746C, symBinAddr: 0x100009A10, symSize: 0x3C }
  - { offsetInCU: 0x1428F, offset: 0x1428F, size: 0x8, addend: 0x0, symName: __ZNSt3__117__compressed_pairINS_9allocatorI4KingEES2_E17__get_second_baseB7v160006EPS4_, symObjAddr: 0x74A8, symBinAddr: 0x100009A4C, symSize: 0x14 }
  - { offsetInCU: 0x142B2, offset: 0x142B2, size: 0x8, addend: 0x0, symName: __ZNSt3__118__allocation_guardINS_9allocatorINS_20__shared_ptr_emplaceI4KingNS1_IS3_EEEEEEED2B7v160006Ev, symObjAddr: 0x74BC, symBinAddr: 0x100009A60, symSize: 0x58 }
  - { offsetInCU: 0x142DC, offset: 0x142DC, size: 0x8, addend: 0x0, symName: __ZNSt3__19allocatorI4KingEC2B7v160006Ev, symObjAddr: 0x7514, symBinAddr: 0x100009AB8, symSize: 0x2C }
  - { offsetInCU: 0x14306, offset: 0x14306, size: 0x8, addend: 0x0, symName: __ZNSt3__116__non_trivial_ifILb1ENS_9allocatorI4KingEEEC2B7v160006Ev, symObjAddr: 0x7540, symBinAddr: 0x100009AE4, symSize: 0x14 }
  - { offsetInCU: 0x14330, offset: 0x14330, size: 0x8, addend: 0x0, symName: __ZNSt3__110shared_ptrI5PieceEC1B7v160006I4KingvEEONS0_IT_EE, symObjAddr: 0x7554, symBinAddr: 0x100009AF8, symSize: 0x34 }
  - { offsetInCU: 0x14373, offset: 0x14373, size: 0x8, addend: 0x0, symName: __ZNSt3__110shared_ptrI5PieceEC2B7v160006I4KingvEEONS0_IT_EE, symObjAddr: 0x7588, symBinAddr: 0x100009B2C, symSize: 0x40 }
  - { offsetInCU: 0x143B6, offset: 0x143B6, size: 0x8, addend: 0x0, symName: __ZNSt3__110shared_ptrI4KingED2B7v160006Ev, symObjAddr: 0x75C8, symBinAddr: 0x100009B6C, symSize: 0x54 }
  - { offsetInCU: 0x143E0, offset: 0x143E0, size: 0x8, addend: 0x0, symName: __ZNSt3__16vectorINS0_INS_10shared_ptrI5PieceEENS_9allocatorIS3_EEEENS4_IS6_EEED2B7v160006Ev, symObjAddr: 0x761C, symBinAddr: 0x100009BC0, symSize: 0x3C }
  - { offsetInCU: 0x1440A, offset: 0x1440A, size: 0x8, addend: 0x0, symName: __ZNSt3__16vectorINS0_INS_10shared_ptrI5PieceEENS_9allocatorIS3_EEEENS4_IS6_EEE5beginB7v160006Ev, symObjAddr: 0x7658, symBinAddr: 0x100009BFC, symSize: 0x30 }
  - { offsetInCU: 0x14432, offset: 0x14432, size: 0x8, addend: 0x0, symName: __ZNSt3__16vectorINS0_INS_10shared_ptrI5PieceEENS_9allocatorIS3_EEEENS4_IS6_EEE3endB7v160006Ev, symObjAddr: 0x7688, symBinAddr: 0x100009C2C, symSize: 0x30 }
  - { offsetInCU: 0x1445A, offset: 0x1445A, size: 0x8, addend: 0x0, symName: __ZNKSt3__111__wrap_iterIPNS_6vectorINS_10shared_ptrI5PieceEENS_9allocatorIS4_EEEEEdeB7v160006Ev, symObjAddr: 0x76EC, symBinAddr: 0x100009C90, symSize: 0x18 }
  - { offsetInCU: 0x14480, offset: 0x14480, size: 0x8, addend: 0x0, symName: __ZNKSt3__16vectorINS_10shared_ptrI5PieceEENS_9allocatorIS3_EEE5beginB7v160006Ev, symObjAddr: 0x7704, symBinAddr: 0x100009CA8, symSize: 0x30 }
  - { offsetInCU: 0x144A8, offset: 0x144A8, size: 0x8, addend: 0x0, symName: __ZNKSt3__16vectorINS_10shared_ptrI5PieceEENS_9allocatorIS3_EEE3endB7v160006Ev, symObjAddr: 0x7734, symBinAddr: 0x100009CD8, symSize: 0x30 }
  - { offsetInCU: 0x144D0, offset: 0x144D0, size: 0x8, addend: 0x0, symName: __ZNKSt3__111__wrap_iterIPKNS_10shared_ptrI5PieceEEEdeB7v160006Ev, symObjAddr: 0x7798, symBinAddr: 0x100009D3C, symSize: 0x18 }
  - { offsetInCU: 0x144F6, offset: 0x144F6, size: 0x8, addend: 0x0, symName: __ZNKSt3__110shared_ptrI5PieceEcvbB7v160006Ev, symObjAddr: 0x77B0, symBinAddr: 0x100009D54, symSize: 0x30 }
  - { offsetInCU: 0x1451C, offset: 0x1451C, size: 0x8, addend: 0x0, symName: __ZNKSt3__110shared_ptrI5PieceEptB7v160006Ev, symObjAddr: 0x7814, symBinAddr: 0x100009DB8, symSize: 0x18 }
  - { offsetInCU: 0x14542, offset: 0x14542, size: 0x8, addend: 0x0, symName: __ZNSt3__111__wrap_iterIPKNS_10shared_ptrI5PieceEEEppB7v160006Ev, symObjAddr: 0x7874, symBinAddr: 0x100009E18, symSize: 0x20 }
  - { offsetInCU: 0x14568, offset: 0x14568, size: 0x8, addend: 0x0, symName: __ZNSt3__113basic_ostreamIcNS_11char_traitsIcEEElsB7v160006EPFRS3_S4_E, symObjAddr: 0x7894, symBinAddr: 0x100009E38, symSize: 0x2C }
  - { offsetInCU: 0x1459C, offset: 0x1459C, size: 0x8, addend: 0x0, symName: __ZNSt3__111__wrap_iterIPNS_6vectorINS_10shared_ptrI5PieceEENS_9allocatorIS4_EEEEEppB7v160006Ev, symObjAddr: 0x7918, symBinAddr: 0x100009EBC, symSize: 0x20 }
  - { offsetInCU: 0x145C2, offset: 0x145C2, size: 0x8, addend: 0x0, symName: __ZNSt3__16vectorINS0_INS_10shared_ptrI5PieceEENS_9allocatorIS3_EEEENS4_IS6_EEE11__make_iterB7v160006EPS6_, symObjAddr: 0x7938, symBinAddr: 0x100009EDC, symSize: 0x34 }
  - { offsetInCU: 0x145F7, offset: 0x145F7, size: 0x8, addend: 0x0, symName: __ZNSt3__111__wrap_iterIPNS_6vectorINS_10shared_ptrI5PieceEENS_9allocatorIS4_EEEEEC1B7v160006EPKvS8_, symObjAddr: 0x796C, symBinAddr: 0x100009F10, symSize: 0x3C }
  - { offsetInCU: 0x1463D, offset: 0x1463D, size: 0x8, addend: 0x0, symName: __ZNSt3__111__wrap_iterIPNS_6vectorINS_10shared_ptrI5PieceEENS_9allocatorIS4_EEEEEC2B7v160006EPKvS8_, symObjAddr: 0x79A8, symBinAddr: 0x100009F4C, symSize: 0x24 }
  - { offsetInCU: 0x14683, offset: 0x14683, size: 0x8, addend: 0x0, symName: __ZNKSt3__111__wrap_iterIPNS_6vectorINS_10shared_ptrI5PieceEENS_9allocatorIS4_EEEEE4baseB7v160006Ev, symObjAddr: 0x7A14, symBinAddr: 0x100009FB8, symSize: 0x18 }
  - { offsetInCU: 0x146A9, offset: 0x146A9, size: 0x8, addend: 0x0, symName: __ZNKSt3__16vectorINS_10shared_ptrI5PieceEENS_9allocatorIS3_EEE11__make_iterB7v160006EPKS3_, symObjAddr: 0x7A2C, symBinAddr: 0x100009FD0, symSize: 0x34 }
  - { offsetInCU: 0x146DE, offset: 0x146DE, size: 0x8, addend: 0x0, symName: __ZNSt3__111__wrap_iterIPKNS_10shared_ptrI5PieceEEEC1B7v160006EPKvS5_, symObjAddr: 0x7A60, symBinAddr: 0x10000A004, symSize: 0x3C }
  - { offsetInCU: 0x14724, offset: 0x14724, size: 0x8, addend: 0x0, symName: __ZNSt3__111__wrap_iterIPKNS_10shared_ptrI5PieceEEEC2B7v160006EPKvS5_, symObjAddr: 0x7A9C, symBinAddr: 0x10000A040, symSize: 0x24 }
  - { offsetInCU: 0x1476A, offset: 0x1476A, size: 0x8, addend: 0x0, symName: __ZNKSt3__111__wrap_iterIPKNS_10shared_ptrI5PieceEEE4baseB7v160006Ev, symObjAddr: 0x7B08, symBinAddr: 0x10000A0AC, symSize: 0x18 }
  - { offsetInCU: 0x14790, offset: 0x14790, size: 0x8, addend: 0x0, symName: __ZNKSt3__110shared_ptrI5PieceE3getB7v160006Ev, symObjAddr: 0x7B20, symBinAddr: 0x10000A0C4, symSize: 0x18 }
  - { offsetInCU: 0x147D4, offset: 0x147D4, size: 0x8, addend: 0x0, symName: __ZNKSt3__113basic_ostreamIcNS_11char_traitsIcEEE6sentrycvbB7v160006Ev, symObjAddr: 0x7D2C, symBinAddr: 0x10000A2D0, symSize: 0x1C }
  - { offsetInCU: 0x147FA, offset: 0x147FA, size: 0x8, addend: 0x0, symName: __ZNSt3__119ostreambuf_iteratorIcNS_11char_traitsIcEEEC1B7v160006ERNS_13basic_ostreamIcS2_EE, symObjAddr: 0x7F90, symBinAddr: 0x10000A534, symSize: 0x34 }
  - { offsetInCU: 0x14832, offset: 0x14832, size: 0x8, addend: 0x0, symName: __ZNKSt3__18ios_base5flagsB7v160006Ev, symObjAddr: 0x7FC4, symBinAddr: 0x10000A568, symSize: 0x18 }
  - { offsetInCU: 0x1485A, offset: 0x1485A, size: 0x8, addend: 0x0, symName: __ZNKSt3__19basic_iosIcNS_11char_traitsIcEEE4fillB7v160006Ev, symObjAddr: 0x7FDC, symBinAddr: 0x10000A580, symSize: 0x64 }
  - { offsetInCU: 0x14882, offset: 0x14882, size: 0x8, addend: 0x0, symName: __ZNKSt3__119ostreambuf_iteratorIcNS_11char_traitsIcEEE6failedB7v160006Ev, symObjAddr: 0x8040, symBinAddr: 0x10000A5E4, symSize: 0x24 }
  - { offsetInCU: 0x148A8, offset: 0x148A8, size: 0x8, addend: 0x0, symName: __ZNSt3__19basic_iosIcNS_11char_traitsIcEEE8setstateB7v160006Ej, symObjAddr: 0x8064, symBinAddr: 0x10000A608, symSize: 0x2C }
  - { offsetInCU: 0x148DD, offset: 0x148DD, size: 0x8, addend: 0x0, symName: __ZNKSt3__18ios_base5widthB7v160006Ev, symObjAddr: 0x8090, symBinAddr: 0x10000A634, symSize: 0x18 }
  - { offsetInCU: 0x14905, offset: 0x14905, size: 0x8, addend: 0x0, symName: __ZNSt3__115basic_streambufIcNS_11char_traitsIcEEE5sputnB7v160006EPKcl, symObjAddr: 0x80A8, symBinAddr: 0x10000A64C, symSize: 0x3C }
  - { offsetInCU: 0x14947, offset: 0x14947, size: 0x8, addend: 0x0, symName: __ZNSt3__112basic_stringIcNS_11char_traitsIcEENS_9allocatorIcEEEC1B7v160006Emc, symObjAddr: 0x80E4, symBinAddr: 0x10000A688, symSize: 0x3C }
  - { offsetInCU: 0x1498F, offset: 0x1498F, size: 0x8, addend: 0x0, symName: __ZNKSt3__112basic_stringIcNS_11char_traitsIcEENS_9allocatorIcEEE4dataB7v160006Ev, symObjAddr: 0x8120, symBinAddr: 0x10000A6C4, symSize: 0x28 }
  - { offsetInCU: 0x149B5, offset: 0x149B5, size: 0x8, addend: 0x0, symName: __ZNSt3__18ios_base5widthB7v160006El, symObjAddr: 0x8148, symBinAddr: 0x10000A6EC, symSize: 0x2C }
  - { offsetInCU: 0x149FB, offset: 0x149FB, size: 0x8, addend: 0x0, symName: __ZNSt3__112basic_stringIcNS_11char_traitsIcEENS_9allocatorIcEEEC2B7v160006Emc, symObjAddr: 0x8174, symBinAddr: 0x10000A718, symSize: 0x54 }
  - { offsetInCU: 0x14A43, offset: 0x14A43, size: 0x8, addend: 0x0, symName: __ZNSt3__117__compressed_pairINS_12basic_stringIcNS_11char_traitsIcEENS_9allocatorIcEEE5__repES5_EC1B7v160006INS_18__default_init_tagESA_EEOT_OT0_, symObjAddr: 0x81C8, symBinAddr: 0x10000A76C, symSize: 0x3C }
  - { offsetInCU: 0x14A9B, offset: 0x14A9B, size: 0x8, addend: 0x0, symName: __ZNSt3__117__compressed_pairINS_12basic_stringIcNS_11char_traitsIcEENS_9allocatorIcEEE5__repES5_EC2B7v160006INS_18__default_init_tagESA_EEOT_OT0_, symObjAddr: 0x8214, symBinAddr: 0x10000A7B8, symSize: 0x3C }
  - { offsetInCU: 0x14AF3, offset: 0x14AF3, size: 0x8, addend: 0x0, symName: __ZNSt3__122__compressed_pair_elemINS_12basic_stringIcNS_11char_traitsIcEENS_9allocatorIcEEE5__repELi0ELb0EEC2B7v160006ENS_18__default_init_tagE, symObjAddr: 0x8250, symBinAddr: 0x10000A7F4, symSize: 0x14 }
  - { offsetInCU: 0x14B28, offset: 0x14B28, size: 0x8, addend: 0x0, symName: __ZNSt3__122__compressed_pair_elemINS_9allocatorIcEELi1ELb1EEC2B7v160006ENS_18__default_init_tagE, symObjAddr: 0x8264, symBinAddr: 0x10000A808, symSize: 0x2C }
  - { offsetInCU: 0x14B5D, offset: 0x14B5D, size: 0x8, addend: 0x0, symName: __ZNSt3__19allocatorIcEC2B7v160006Ev, symObjAddr: 0x8290, symBinAddr: 0x10000A834, symSize: 0x2C }
  - { offsetInCU: 0x14B87, offset: 0x14B87, size: 0x8, addend: 0x0, symName: __ZNSt3__116__non_trivial_ifILb1ENS_9allocatorIcEEEC2B7v160006Ev, symObjAddr: 0x82BC, symBinAddr: 0x10000A860, symSize: 0x14 }
  - { offsetInCU: 0x14BB1, offset: 0x14BB1, size: 0x8, addend: 0x0, symName: __ZNKSt3__112basic_stringIcNS_11char_traitsIcEENS_9allocatorIcEEE13__get_pointerB7v160006Ev, symObjAddr: 0x82E4, symBinAddr: 0x10000A888, symSize: 0x54 }
  - { offsetInCU: 0x14BD7, offset: 0x14BD7, size: 0x8, addend: 0x0, symName: __ZNKSt3__112basic_stringIcNS_11char_traitsIcEENS_9allocatorIcEEE9__is_longB7v160006Ev, symObjAddr: 0x8338, symBinAddr: 0x10000A8DC, symSize: 0x74 }
  - { offsetInCU: 0x14BFD, offset: 0x14BFD, size: 0x8, addend: 0x0, symName: __ZNKSt3__112basic_stringIcNS_11char_traitsIcEENS_9allocatorIcEEE18__get_long_pointerB7v160006Ev, symObjAddr: 0x83AC, symBinAddr: 0x10000A950, symSize: 0x28 }
  - { offsetInCU: 0x14C23, offset: 0x14C23, size: 0x8, addend: 0x0, symName: __ZNKSt3__112basic_stringIcNS_11char_traitsIcEENS_9allocatorIcEEE19__get_short_pointerB7v160006Ev, symObjAddr: 0x83D4, symBinAddr: 0x10000A978, symSize: 0x28 }
  - { offsetInCU: 0x14C49, offset: 0x14C49, size: 0x8, addend: 0x0, symName: __ZNKSt3__117__compressed_pairINS_12basic_stringIcNS_11char_traitsIcEENS_9allocatorIcEEE5__repES5_E5firstB7v160006Ev, symObjAddr: 0x83FC, symBinAddr: 0x10000A9A0, symSize: 0x24 }
  - { offsetInCU: 0x14C6F, offset: 0x14C6F, size: 0x8, addend: 0x0, symName: __ZNKSt3__122__compressed_pair_elemINS_12basic_stringIcNS_11char_traitsIcEENS_9allocatorIcEEE5__repELi0ELb0EE5__getB7v160006Ev, symObjAddr: 0x8420, symBinAddr: 0x10000A9C4, symSize: 0x14 }
  - { offsetInCU: 0x14C95, offset: 0x14C95, size: 0x8, addend: 0x0, symName: __ZNSt3__114pointer_traitsIPKcE10pointer_toB7v160006ERS1_, symObjAddr: 0x8434, symBinAddr: 0x10000A9D8, symSize: 0x14 }
  - { offsetInCU: 0x14CB8, offset: 0x14CB8, size: 0x8, addend: 0x0, symName: __ZNSt3__119ostreambuf_iteratorIcNS_11char_traitsIcEEEC2B7v160006ERNS_13basic_ostreamIcS2_EE, symObjAddr: 0x8448, symBinAddr: 0x10000A9EC, symSize: 0x68 }
  - { offsetInCU: 0x14CF0, offset: 0x14CF0, size: 0x8, addend: 0x0, symName: __ZNKSt3__19basic_iosIcNS_11char_traitsIcEEE5rdbufB7v160006Ev, symObjAddr: 0x84B0, symBinAddr: 0x10000AA54, symSize: 0x24 }
  - { offsetInCU: 0x14D18, offset: 0x14D18, size: 0x8, addend: 0x0, symName: __ZNKSt3__18ios_base5rdbufB7v160006Ev, symObjAddr: 0x84D4, symBinAddr: 0x10000AA78, symSize: 0x18 }
  - { offsetInCU: 0x14D3E, offset: 0x14D3E, size: 0x8, addend: 0x0, symName: __ZNSt3__111char_traitsIcE11eq_int_typeEii, symObjAddr: 0x84EC, symBinAddr: 0x10000AA90, symSize: 0x28 }
  - { offsetInCU: 0x14D6F, offset: 0x14D6F, size: 0x8, addend: 0x0, symName: __ZNSt3__111char_traitsIcE3eofEv, symObjAddr: 0x8514, symBinAddr: 0x10000AAB8, symSize: 0x8 }
  - { offsetInCU: 0x14D83, offset: 0x14D83, size: 0x8, addend: 0x0, symName: __ZNKSt3__19basic_iosIcNS_11char_traitsIcEEE5widenB7v160006Ec, symObjAddr: 0x851C, symBinAddr: 0x10000AAC0, symSize: 0x8C }
  - { offsetInCU: 0x14DF1, offset: 0x14DF1, size: 0x8, addend: 0x0, symName: __ZNKSt3__15ctypeIcE5widenB7v160006Ec, symObjAddr: 0x85D4, symBinAddr: 0x10000AB78, symSize: 0x38 }
  - { offsetInCU: 0x14E26, offset: 0x14E26, size: 0x8, addend: 0x0, symName: __ZNSt3__18ios_base8setstateB7v160006Ej, symObjAddr: 0x860C, symBinAddr: 0x10000ABB0, symSize: 0x34 }
  - { offsetInCU: 0x14E5D, offset: 0x14E5D, size: 0x8, addend: 0x0, symName: __ZNSt3__111char_traitsIcE6lengthEPKc, symObjAddr: 0x8640, symBinAddr: 0x10000ABE4, symSize: 0x48 }
  - { offsetInCU: 0x14E80, offset: 0x14E80, size: 0x8, addend: 0x0, symName: __ZN10ChessboardD2Ev, symObjAddr: 0x86AC, symBinAddr: 0x10000AC50, symSize: 0x2C }
...
